
boilerplate.o:     file format elf32-tradlittlemips


Disassembly of section .text:

80000000 <__start>:
80000000:	3c1d8080 	lui	$29,0x8080
80000004:	04110238 	bgezal	$0,800008e8 <bootloader>
80000008:	00000000 	sll	$0,$0,0x0

8000000c <boot>:
8000000c:	041100fe 	bgezal	$0,80000408 <main>
80000010:	00000000 	sll	$0,$0,0x0
80000014:	080000e4 	j	80000390 <end>
80000018:	00000000 	sll	$0,$0,0x0
	...

80000380 <__halt>:
80000380:	3c1d8080 	lui	$29,0x8080
80000384:	40047000 	mfc0	$4,c0_epc
80000388:	04110167 	bgezal	$0,80000928 <halt>
8000038c:	00000000 	sll	$0,$0,0x0

80000390 <end>:
80000390:	080000e4 	j	80000390 <end>
80000394:	00000000 	sll	$0,$0,0x0

80000398 <_ZN17RoutingTableEntryC1Ejjjjj>:
80000398:	27bdfff8 	addiu	$29,$29,-8
8000039c:	afbe0004 	sw	$30,4($29)
800003a0:	03a0f025 	or	$30,$29,$0
800003a4:	afc40008 	sw	$4,8($30)
800003a8:	afc5000c 	sw	$5,12($30)
800003ac:	afc60010 	sw	$6,16($30)
800003b0:	afc70014 	sw	$7,20($30)
800003b4:	8fc20008 	lw	$2,8($30)
800003b8:	8fc3000c 	lw	$3,12($30)
800003bc:	ac430000 	sw	$3,0($2)
800003c0:	8fc20008 	lw	$2,8($30)
800003c4:	8fc30010 	lw	$3,16($30)
800003c8:	ac430004 	sw	$3,4($2)
800003cc:	8fc20008 	lw	$2,8($30)
800003d0:	8fc30014 	lw	$3,20($30)
800003d4:	ac430008 	sw	$3,8($2)
800003d8:	8fc20008 	lw	$2,8($30)
800003dc:	8fc30018 	lw	$3,24($30)
800003e0:	ac43000c 	sw	$3,12($2)
800003e4:	8fc20008 	lw	$2,8($30)
800003e8:	8fc3001c 	lw	$3,28($30)
800003ec:	ac430010 	sw	$3,16($2)
800003f0:	00000000 	sll	$0,$0,0x0
800003f4:	03c0e825 	or	$29,$30,$0
800003f8:	8fbe0004 	lw	$30,4($29)
800003fc:	27bd0008 	addiu	$29,$29,8
80000400:	03e00008 	jr	$31
80000404:	00000000 	sll	$0,$0,0x0

80000408 <main>:
80000408:	27bdff98 	addiu	$29,$29,-104
8000040c:	afbf0064 	sw	$31,100($29)
80000410:	afbe0060 	sw	$30,96($29)
80000414:	afb0005c 	sw	$16,92($29)
80000418:	03a0f025 	or	$30,$29,$0
8000041c:	3c020a00 	lui	$2,0xa00
80000420:	34420001 	ori	$2,$2,0x1
80000424:	afc2002c 	sw	$2,44($30)
80000428:	3c020a00 	lui	$2,0xa00
8000042c:	34420101 	ori	$2,$2,0x101
80000430:	afc20030 	sw	$2,48($30)
80000434:	3c020a00 	lui	$2,0xa00
80000438:	34420201 	ori	$2,$2,0x201
8000043c:	afc20034 	sw	$2,52($30)
80000440:	3c020a00 	lui	$2,0xa00
80000444:	34420301 	ori	$2,$2,0x301
80000448:	afc20038 	sw	$2,56($30)
8000044c:	27c2002c 	addiu	$2,$30,44
80000450:	00402025 	or	$4,$2,$0
80000454:	0c0004d4 	jal	80001350 <Init>
80000458:	00000000 	sll	$0,$0,0x0
8000045c:	afc00018 	sw	$0,24($30)
80000460:	8fc20018 	lw	$2,24($30)
80000464:	2c420004 	sltiu	$2,$2,4
80000468:	10400030 	beqz	$2,8000052c <main+0x124>
8000046c:	00000000 	sll	$0,$0,0x0
80000470:	8fc20018 	lw	$2,24($30)
80000474:	00021080 	sll	$2,$2,0x2
80000478:	27c30018 	addiu	$3,$30,24
8000047c:	00621021 	addu	$2,$3,$2
80000480:	8c420014 	lw	$2,20($2)
80000484:	00402025 	or	$4,$2,$0
80000488:	0c000361 	jal	80000d84 <_Z5htonlj>
8000048c:	00000000 	sll	$0,$0,0x0
80000490:	00401825 	or	$3,$2,$0
80000494:	3c0200ff 	lui	$2,0xff
80000498:	3442ffff 	ori	$2,$2,0xffff
8000049c:	00622024 	and	$4,$3,$2
800004a0:	27c3003c 	addiu	$3,$30,60
800004a4:	3c020100 	lui	$2,0x100
800004a8:	afa20014 	sw	$2,20($29)
800004ac:	afa00010 	sw	$0,16($29)
800004b0:	8fc70018 	lw	$7,24($30)
800004b4:	24060018 	addiu	$6,$0,24
800004b8:	00802825 	or	$5,$4,$0
800004bc:	00602025 	or	$4,$3,$0
800004c0:	0c0000e6 	jal	80000398 <_ZN17RoutingTableEntryC1Ejjjjj>
800004c4:	00000000 	sll	$0,$0,0x0
800004c8:	8fc2003c 	lw	$2,60($30)
800004cc:	00402025 	or	$4,$2,$0
800004d0:	0c000378 	jal	80000de0 <_Z5ntohlj>
800004d4:	00000000 	sll	$0,$0,0x0
800004d8:	00408025 	or	$16,$2,$0
800004dc:	8fc20048 	lw	$2,72($30)
800004e0:	00402025 	or	$4,$2,$0
800004e4:	0c000378 	jal	80000de0 <_Z5ntohlj>
800004e8:	00000000 	sll	$0,$0,0x0
800004ec:	00402025 	or	$4,$2,$0
800004f0:	8fc20040 	lw	$2,64($30)
800004f4:	304200ff 	andi	$2,$2,0xff
800004f8:	8fc30044 	lw	$3,68($30)
800004fc:	306300ff 	andi	$3,$3,0xff
80000500:	00603825 	or	$7,$3,$0
80000504:	00403025 	or	$6,$2,$0
80000508:	00802825 	or	$5,$4,$0
8000050c:	02002025 	or	$4,$16,$0
80000510:	0c00080c 	jal	80002030 <_Z19InsertHardwareTablejjhh>
80000514:	00000000 	sll	$0,$0,0x0
80000518:	8fc20018 	lw	$2,24($30)
8000051c:	24420001 	addiu	$2,$2,1
80000520:	afc20018 	sw	$2,24($30)
80000524:	1000ffce 	beqz	$0,80000460 <main+0x58>
80000528:	00000000 	sll	$0,$0,0x0
8000052c:	afc0001c 	sw	$0,28($30)
80000530:	27c30054 	addiu	$3,$30,84
80000534:	27c20050 	addiu	$2,$30,80
80000538:	afa20010 	sw	$2,16($29)
8000053c:	240603e8 	addiu	$6,$0,1000
80000540:	00003825 	or	$7,$0,$0
80000544:	00602025 	or	$4,$3,$0
80000548:	0c00051c 	jal	80001470 <ReceiveEthernetFrame>
8000054c:	00000000 	sll	$0,$0,0x0
80000550:	afc20020 	sw	$2,32($30)
80000554:	8fc20020 	lw	$2,32($30)
80000558:	1040002b 	beqz	$2,80000608 <main+0x200>
8000055c:	00000000 	sll	$0,$0,0x0
80000560:	8fc20020 	lw	$2,32($30)
80000564:	28420800 	slti	$2,$2,2048
80000568:	1040002a 	beqz	$2,80000614 <main+0x20c>
8000056c:	00000000 	sll	$0,$0,0x0
80000570:	8fc20054 	lw	$2,84($30)
80000574:	94420022 	lhu	$2,34($2)
80000578:	a7c20024 	sh	$2,36($30)
8000057c:	8fc20054 	lw	$2,84($30)
80000580:	94420024 	lhu	$2,36($2)
80000584:	a7c20026 	sh	$2,38($30)
80000588:	8fc20054 	lw	$2,84($30)
8000058c:	94420026 	lhu	$2,38($2)
80000590:	a7c20028 	sh	$2,40($30)
80000594:	8fc20054 	lw	$2,84($30)
80000598:	94420028 	lhu	$2,40($2)
8000059c:	a7c2002a 	sh	$2,42($30)
800005a0:	8fc20054 	lw	$2,84($30)
800005a4:	24420022 	addiu	$2,$2,34
800005a8:	97c30028 	lhu	$3,40($30)
800005ac:	a4430000 	sh	$3,0($2)
800005b0:	8fc20054 	lw	$2,84($30)
800005b4:	24420024 	addiu	$2,$2,36
800005b8:	97c3002a 	lhu	$3,42($30)
800005bc:	a4430000 	sh	$3,0($2)
800005c0:	8fc20054 	lw	$2,84($30)
800005c4:	24420026 	addiu	$2,$2,38
800005c8:	97c30024 	lhu	$3,36($30)
800005cc:	a4430000 	sh	$3,0($2)
800005d0:	8fc20054 	lw	$2,84($30)
800005d4:	24420028 	addiu	$2,$2,40
800005d8:	97c30026 	lhu	$3,38($30)
800005dc:	a4430000 	sh	$3,0($2)
800005e0:	8fc20050 	lw	$2,80($30)
800005e4:	8fc30054 	lw	$3,84($30)
800005e8:	8fc40020 	lw	$4,32($30)
800005ec:	00803025 	or	$6,$4,$0
800005f0:	00602825 	or	$5,$3,$0
800005f4:	00402025 	or	$4,$2,$0
800005f8:	0c0005d0 	jal	80001740 <SendEthernetFrame>
800005fc:	00000000 	sll	$0,$0,0x0
80000600:	1000ffcb 	beqz	$0,80000530 <main+0x128>
80000604:	00000000 	sll	$0,$0,0x0
80000608:	00000000 	sll	$0,$0,0x0
8000060c:	1000ffc8 	beqz	$0,80000530 <main+0x128>
80000610:	00000000 	sll	$0,$0,0x0
80000614:	00000000 	sll	$0,$0,0x0
80000618:	1000ffc5 	beqz	$0,80000530 <main+0x128>
8000061c:	00000000 	sll	$0,$0,0x0

80000620 <putc>:
80000620:	27bdfff8 	addiu	$29,$29,-8
80000624:	afbe0004 	sw	$30,4($29)
80000628:	03a0f025 	or	$30,$29,$0
8000062c:	00801025 	or	$2,$4,$0
80000630:	a3c20008 	sb	$2,8($30)
80000634:	3c028000 	lui	$2,0x8000
80000638:	8c422818 	lw	$2,10264($2)
8000063c:	8c420000 	lw	$2,0($2)
80000640:	30420001 	andi	$2,$2,0x1
80000644:	2c420001 	sltiu	$2,$2,1
80000648:	304200ff 	andi	$2,$2,0xff
8000064c:	10400003 	beqz	$2,8000065c <putc+0x3c>
80000650:	00000000 	sll	$0,$0,0x0
80000654:	1000fff7 	beqz	$0,80000634 <putc+0x14>
80000658:	00000000 	sll	$0,$0,0x0
8000065c:	3c028000 	lui	$2,0x8000
80000660:	8c422814 	lw	$2,10260($2)
80000664:	83c30008 	lb	$3,8($30)
80000668:	ac430000 	sw	$3,0($2)
8000066c:	00000000 	sll	$0,$0,0x0
80000670:	03c0e825 	or	$29,$30,$0
80000674:	8fbe0004 	lw	$30,4($29)
80000678:	27bd0008 	addiu	$29,$29,8
8000067c:	03e00008 	jr	$31
80000680:	00000000 	sll	$0,$0,0x0

80000684 <getc>:
80000684:	27bdfff8 	addiu	$29,$29,-8
80000688:	afbe0004 	sw	$30,4($29)
8000068c:	03a0f025 	or	$30,$29,$0
80000690:	3c028000 	lui	$2,0x8000
80000694:	8c422818 	lw	$2,10264($2)
80000698:	8c420000 	lw	$2,0($2)
8000069c:	30420002 	andi	$2,$2,0x2
800006a0:	2c420001 	sltiu	$2,$2,1
800006a4:	304200ff 	andi	$2,$2,0xff
800006a8:	10400003 	beqz	$2,800006b8 <getc+0x34>
800006ac:	00000000 	sll	$0,$0,0x0
800006b0:	1000fff7 	beqz	$0,80000690 <getc+0xc>
800006b4:	00000000 	sll	$0,$0,0x0
800006b8:	3c028000 	lui	$2,0x8000
800006bc:	8c422810 	lw	$2,10256($2)
800006c0:	8c420000 	lw	$2,0($2)
800006c4:	304200ff 	andi	$2,$2,0xff
800006c8:	03c0e825 	or	$29,$30,$0
800006cc:	8fbe0004 	lw	$30,4($29)
800006d0:	27bd0008 	addiu	$29,$29,8
800006d4:	03e00008 	jr	$31
800006d8:	00000000 	sll	$0,$0,0x0

800006dc <getlen>:
800006dc:	27bdffe0 	addiu	$29,$29,-32
800006e0:	afbf001c 	sw	$31,28($29)
800006e4:	afbe0018 	sw	$30,24($29)
800006e8:	03a0f025 	or	$30,$29,$0
800006ec:	afc00010 	sw	$0,16($30)
800006f0:	0c0001a1 	jal	80000684 <getc>
800006f4:	00000000 	sll	$0,$0,0x0
800006f8:	00401825 	or	$3,$2,$0
800006fc:	8fc20010 	lw	$2,16($30)
80000700:	00431025 	or	$2,$2,$3
80000704:	afc20010 	sw	$2,16($30)
80000708:	8fc20010 	lw	$2,16($30)
8000070c:	00021200 	sll	$2,$2,0x8
80000710:	afc20010 	sw	$2,16($30)
80000714:	0c0001a1 	jal	80000684 <getc>
80000718:	00000000 	sll	$0,$0,0x0
8000071c:	00401825 	or	$3,$2,$0
80000720:	8fc20010 	lw	$2,16($30)
80000724:	00431025 	or	$2,$2,$3
80000728:	afc20010 	sw	$2,16($30)
8000072c:	8fc20010 	lw	$2,16($30)
80000730:	00021200 	sll	$2,$2,0x8
80000734:	afc20010 	sw	$2,16($30)
80000738:	0c0001a1 	jal	80000684 <getc>
8000073c:	00000000 	sll	$0,$0,0x0
80000740:	00401825 	or	$3,$2,$0
80000744:	8fc20010 	lw	$2,16($30)
80000748:	00431025 	or	$2,$2,$3
8000074c:	afc20010 	sw	$2,16($30)
80000750:	8fc20010 	lw	$2,16($30)
80000754:	00021200 	sll	$2,$2,0x8
80000758:	afc20010 	sw	$2,16($30)
8000075c:	0c0001a1 	jal	80000684 <getc>
80000760:	00000000 	sll	$0,$0,0x0
80000764:	00401825 	or	$3,$2,$0
80000768:	8fc20010 	lw	$2,16($30)
8000076c:	00431025 	or	$2,$2,$3
80000770:	afc20010 	sw	$2,16($30)
80000774:	8fc20010 	lw	$2,16($30)
80000778:	03c0e825 	or	$29,$30,$0
8000077c:	8fbf001c 	lw	$31,28($29)
80000780:	8fbe0018 	lw	$30,24($29)
80000784:	27bd0020 	addiu	$29,$29,32
80000788:	03e00008 	jr	$31
8000078c:	00000000 	sll	$0,$0,0x0

80000790 <puts>:
80000790:	27bdffe0 	addiu	$29,$29,-32
80000794:	afbf001c 	sw	$31,28($29)
80000798:	afbe0018 	sw	$30,24($29)
8000079c:	03a0f025 	or	$30,$29,$0
800007a0:	afc40020 	sw	$4,32($30)
800007a4:	afc50024 	sw	$5,36($30)
800007a8:	afc00010 	sw	$0,16($30)
800007ac:	8fc30010 	lw	$3,16($30)
800007b0:	8fc20024 	lw	$2,36($30)
800007b4:	0062102a 	slt	$2,$3,$2
800007b8:	1040000d 	beqz	$2,800007f0 <puts+0x60>
800007bc:	00000000 	sll	$0,$0,0x0
800007c0:	8fc20010 	lw	$2,16($30)
800007c4:	8fc30020 	lw	$3,32($30)
800007c8:	00621021 	addu	$2,$3,$2
800007cc:	80420000 	lb	$2,0($2)
800007d0:	00402025 	or	$4,$2,$0
800007d4:	0c000188 	jal	80000620 <putc>
800007d8:	00000000 	sll	$0,$0,0x0
800007dc:	8fc20010 	lw	$2,16($30)
800007e0:	24420001 	addiu	$2,$2,1
800007e4:	afc20010 	sw	$2,16($30)
800007e8:	1000fff0 	beqz	$0,800007ac <puts+0x1c>
800007ec:	00000000 	sll	$0,$0,0x0
800007f0:	2404000a 	addiu	$4,$0,10
800007f4:	0c000188 	jal	80000620 <putc>
800007f8:	00000000 	sll	$0,$0,0x0
800007fc:	00000000 	sll	$0,$0,0x0
80000800:	03c0e825 	or	$29,$30,$0
80000804:	8fbf001c 	lw	$31,28($29)
80000808:	8fbe0018 	lw	$30,24($29)
8000080c:	27bd0020 	addiu	$29,$29,32
80000810:	03e00008 	jr	$31
80000814:	00000000 	sll	$0,$0,0x0

80000818 <puthex>:
80000818:	27bdffe0 	addiu	$29,$29,-32
8000081c:	afbf001c 	sw	$31,28($29)
80000820:	afbe0018 	sw	$30,24($29)
80000824:	03a0f025 	or	$30,$29,$0
80000828:	afc40020 	sw	$4,32($30)
8000082c:	24020007 	addiu	$2,$0,7
80000830:	afc20010 	sw	$2,16($30)
80000834:	8fc20010 	lw	$2,16($30)
80000838:	04400024 	bltz	$2,800008cc <puthex+0xb4>
8000083c:	00000000 	sll	$0,$0,0x0
80000840:	8fc20010 	lw	$2,16($30)
80000844:	00021080 	sll	$2,$2,0x2
80000848:	8fc30020 	lw	$3,32($30)
8000084c:	00431006 	srlv	$2,$3,$2
80000850:	3042000f 	andi	$2,$2,0xf
80000854:	afc20014 	sw	$2,20($30)
80000858:	8fc20014 	lw	$2,20($30)
8000085c:	2842000a 	slti	$2,$2,10
80000860:	1040000c 	beqz	$2,80000894 <puthex+0x7c>
80000864:	00000000 	sll	$0,$0,0x0
80000868:	8fc20014 	lw	$2,20($30)
8000086c:	304200ff 	andi	$2,$2,0xff
80000870:	24420030 	addiu	$2,$2,48
80000874:	304200ff 	andi	$2,$2,0xff
80000878:	00021600 	sll	$2,$2,0x18
8000087c:	00021603 	sra	$2,$2,0x18
80000880:	00402025 	or	$4,$2,$0
80000884:	0c000188 	jal	80000620 <putc>
80000888:	00000000 	sll	$0,$0,0x0
8000088c:	1000000a 	beqz	$0,800008b8 <puthex+0xa0>
80000890:	00000000 	sll	$0,$0,0x0
80000894:	8fc20014 	lw	$2,20($30)
80000898:	304200ff 	andi	$2,$2,0xff
8000089c:	24420037 	addiu	$2,$2,55
800008a0:	304200ff 	andi	$2,$2,0xff
800008a4:	00021600 	sll	$2,$2,0x18
800008a8:	00021603 	sra	$2,$2,0x18
800008ac:	00402025 	or	$4,$2,$0
800008b0:	0c000188 	jal	80000620 <putc>
800008b4:	00000000 	sll	$0,$0,0x0
800008b8:	8fc20010 	lw	$2,16($30)
800008bc:	2442ffff 	addiu	$2,$2,-1
800008c0:	afc20010 	sw	$2,16($30)
800008c4:	1000ffdb 	beqz	$0,80000834 <puthex+0x1c>
800008c8:	00000000 	sll	$0,$0,0x0
800008cc:	00000000 	sll	$0,$0,0x0
800008d0:	03c0e825 	or	$29,$30,$0
800008d4:	8fbf001c 	lw	$31,28($29)
800008d8:	8fbe0018 	lw	$30,24($29)
800008dc:	27bd0020 	addiu	$29,$29,32
800008e0:	03e00008 	jr	$31
800008e4:	00000000 	sll	$0,$0,0x0

800008e8 <bootloader>:
800008e8:	27bdffe8 	addiu	$29,$29,-24
800008ec:	afbf0014 	sw	$31,20($29)
800008f0:	afbe0010 	sw	$30,16($29)
800008f4:	03a0f025 	or	$30,$29,$0
800008f8:	24050002 	addiu	$5,$0,2
800008fc:	3c028000 	lui	$2,0x8000
80000900:	24442160 	addiu	$4,$2,8544
80000904:	0c0001e4 	jal	80000790 <puts>
80000908:	00000000 	sll	$0,$0,0x0
8000090c:	00000000 	sll	$0,$0,0x0
80000910:	03c0e825 	or	$29,$30,$0
80000914:	8fbf0014 	lw	$31,20($29)
80000918:	8fbe0010 	lw	$30,16($29)
8000091c:	27bd0018 	addiu	$29,$29,24
80000920:	03e00008 	jr	$31
80000924:	00000000 	sll	$0,$0,0x0

80000928 <halt>:
80000928:	27bdffe8 	addiu	$29,$29,-24
8000092c:	afbf0014 	sw	$31,20($29)
80000930:	afbe0010 	sw	$30,16($29)
80000934:	03a0f025 	or	$30,$29,$0
80000938:	afc40018 	sw	$4,24($30)
8000093c:	8fc40018 	lw	$4,24($30)
80000940:	0c000206 	jal	80000818 <puthex>
80000944:	00000000 	sll	$0,$0,0x0
80000948:	00000000 	sll	$0,$0,0x0
8000094c:	03c0e825 	or	$29,$30,$0
80000950:	8fbf0014 	lw	$31,20($29)
80000954:	8fbe0010 	lw	$30,16($29)
80000958:	27bd0018 	addiu	$29,$29,24
8000095c:	03e00008 	jr	$31
80000960:	00000000 	sll	$0,$0,0x0

80000964 <_Z7getDataPKhm>:
80000964:	27bdfff8 	addiu	$29,$29,-8
80000968:	afbe0004 	sw	$30,4($29)
8000096c:	03a0f025 	or	$30,$29,$0
80000970:	afc40008 	sw	$4,8($30)
80000974:	afc5000c 	sw	$5,12($30)
80000978:	8fc30008 	lw	$3,8($30)
8000097c:	8fc2000c 	lw	$2,12($30)
80000980:	00621021 	addu	$2,$3,$2
80000984:	90420000 	lbu	$2,0($2)
80000988:	00021200 	sll	$2,$2,0x8
8000098c:	8fc3000c 	lw	$3,12($30)
80000990:	24630001 	addiu	$3,$3,1
80000994:	8fc40008 	lw	$4,8($30)
80000998:	00831821 	addu	$3,$4,$3
8000099c:	90630000 	lbu	$3,0($3)
800009a0:	00431025 	or	$2,$2,$3
800009a4:	03c0e825 	or	$29,$30,$0
800009a8:	8fbe0004 	lw	$30,4($29)
800009ac:	27bd0008 	addiu	$29,$29,8
800009b0:	03e00008 	jr	$31
800009b4:	00000000 	sll	$0,$0,0x0

800009b8 <_Z9writeDataPhmi>:
800009b8:	27bdfff8 	addiu	$29,$29,-8
800009bc:	afbe0004 	sw	$30,4($29)
800009c0:	03a0f025 	or	$30,$29,$0
800009c4:	afc40008 	sw	$4,8($30)
800009c8:	afc5000c 	sw	$5,12($30)
800009cc:	afc60010 	sw	$6,16($30)
800009d0:	8fc20010 	lw	$2,16($30)
800009d4:	00022203 	sra	$4,$2,0x8
800009d8:	8fc30008 	lw	$3,8($30)
800009dc:	8fc2000c 	lw	$2,12($30)
800009e0:	00621021 	addu	$2,$3,$2
800009e4:	308300ff 	andi	$3,$4,0xff
800009e8:	a0430000 	sb	$3,0($2)
800009ec:	8fc2000c 	lw	$2,12($30)
800009f0:	24420001 	addiu	$2,$2,1
800009f4:	8fc30008 	lw	$3,8($30)
800009f8:	00621021 	addu	$2,$3,$2
800009fc:	8fc30010 	lw	$3,16($30)
80000a00:	306300ff 	andi	$3,$3,0xff
80000a04:	a0430000 	sb	$3,0($2)
80000a08:	00000000 	sll	$0,$0,0x0
80000a0c:	03c0e825 	or	$29,$30,$0
80000a10:	8fbe0004 	lw	$30,4($29)
80000a14:	27bd0008 	addiu	$29,$29,8
80000a18:	03e00008 	jr	$31
80000a1c:	00000000 	sll	$0,$0,0x0

80000a20 <_Z7reverseh>:
80000a20:	27bdfff8 	addiu	$29,$29,-8
80000a24:	afbe0004 	sw	$30,4($29)
80000a28:	03a0f025 	or	$30,$29,$0
80000a2c:	00801025 	or	$2,$4,$0
80000a30:	a3c20008 	sb	$2,8($30)
80000a34:	93c20008 	lbu	$2,8($30)
80000a38:	00021102 	srl	$2,$2,0x4
80000a3c:	304200ff 	andi	$2,$2,0xff
80000a40:	00021e00 	sll	$3,$2,0x18
80000a44:	00031e03 	sra	$3,$3,0x18
80000a48:	93c20008 	lbu	$2,8($30)
80000a4c:	00021100 	sll	$2,$2,0x4
80000a50:	00021600 	sll	$2,$2,0x18
80000a54:	00021603 	sra	$2,$2,0x18
80000a58:	00621025 	or	$2,$3,$2
80000a5c:	00021600 	sll	$2,$2,0x18
80000a60:	00021603 	sra	$2,$2,0x18
80000a64:	a3c20008 	sb	$2,8($30)
80000a68:	93c20008 	lbu	$2,8($30)
80000a6c:	00021083 	sra	$2,$2,0x2
80000a70:	00021600 	sll	$2,$2,0x18
80000a74:	00021603 	sra	$2,$2,0x18
80000a78:	30420033 	andi	$2,$2,0x33
80000a7c:	00021e00 	sll	$3,$2,0x18
80000a80:	00031e03 	sra	$3,$3,0x18
80000a84:	93c20008 	lbu	$2,8($30)
80000a88:	00021080 	sll	$2,$2,0x2
80000a8c:	00022600 	sll	$4,$2,0x18
80000a90:	00042603 	sra	$4,$4,0x18
80000a94:	2402ffcc 	addiu	$2,$0,-52
80000a98:	00821024 	and	$2,$4,$2
80000a9c:	00021600 	sll	$2,$2,0x18
80000aa0:	00021603 	sra	$2,$2,0x18
80000aa4:	00621025 	or	$2,$3,$2
80000aa8:	00021600 	sll	$2,$2,0x18
80000aac:	00021603 	sra	$2,$2,0x18
80000ab0:	a3c20008 	sb	$2,8($30)
80000ab4:	93c20008 	lbu	$2,8($30)
80000ab8:	00021043 	sra	$2,$2,0x1
80000abc:	00021600 	sll	$2,$2,0x18
80000ac0:	00021603 	sra	$2,$2,0x18
80000ac4:	30420055 	andi	$2,$2,0x55
80000ac8:	00021e00 	sll	$3,$2,0x18
80000acc:	00031e03 	sra	$3,$3,0x18
80000ad0:	93c20008 	lbu	$2,8($30)
80000ad4:	00021040 	sll	$2,$2,0x1
80000ad8:	00022600 	sll	$4,$2,0x18
80000adc:	00042603 	sra	$4,$4,0x18
80000ae0:	2402ffaa 	addiu	$2,$0,-86
80000ae4:	00821024 	and	$2,$4,$2
80000ae8:	00021600 	sll	$2,$2,0x18
80000aec:	00021603 	sra	$2,$2,0x18
80000af0:	00621025 	or	$2,$3,$2
80000af4:	00021600 	sll	$2,$2,0x18
80000af8:	00021603 	sra	$2,$2,0x18
80000afc:	a3c20008 	sb	$2,8($30)
80000b00:	93c20008 	lbu	$2,8($30)
80000b04:	03c0e825 	or	$29,$30,$0
80000b08:	8fbe0004 	lw	$30,4($29)
80000b0c:	27bd0008 	addiu	$29,$29,8
80000b10:	03e00008 	jr	$31
80000b14:	00000000 	sll	$0,$0,0x0

80000b18 <_Z3outji>:
80000b18:	27bdffe8 	addiu	$29,$29,-24
80000b1c:	afbf0014 	sw	$31,20($29)
80000b20:	afbe0010 	sw	$30,16($29)
80000b24:	03a0f025 	or	$30,$29,$0
80000b28:	afc40018 	sw	$4,24($30)
80000b2c:	afc5001c 	sw	$5,28($30)
80000b30:	8fc2001c 	lw	$2,28($30)
80000b34:	2443ffff 	addiu	$3,$2,-1
80000b38:	afc3001c 	sw	$3,28($30)
80000b3c:	0002102b 	sltu	$2,$0,$2
80000b40:	304200ff 	andi	$2,$2,0xff
80000b44:	10400010 	beqz	$2,80000b88 <_Z3outji+0x70>
80000b48:	00000000 	sll	$0,$0,0x0
80000b4c:	8fc30018 	lw	$3,24($30)
80000b50:	8fc2001c 	lw	$2,28($30)
80000b54:	00431006 	srlv	$2,$3,$2
80000b58:	304200ff 	andi	$2,$2,0xff
80000b5c:	30420001 	andi	$2,$2,0x1
80000b60:	304200ff 	andi	$2,$2,0xff
80000b64:	38420030 	xori	$2,$2,0x30
80000b68:	304200ff 	andi	$2,$2,0xff
80000b6c:	00021600 	sll	$2,$2,0x18
80000b70:	00021603 	sra	$2,$2,0x18
80000b74:	00402025 	or	$4,$2,$0
80000b78:	0c0003bd 	jal	80000ef4 <_Z7putcharc>
80000b7c:	00000000 	sll	$0,$0,0x0
80000b80:	1000ffeb 	beqz	$0,80000b30 <_Z3outji+0x18>
80000b84:	00000000 	sll	$0,$0,0x0
80000b88:	00000000 	sll	$0,$0,0x0
80000b8c:	03c0e825 	or	$29,$30,$0
80000b90:	8fbf0014 	lw	$31,20($29)
80000b94:	8fbe0010 	lw	$30,16($29)
80000b98:	27bd0018 	addiu	$29,$29,24
80000b9c:	03e00008 	jr	$31
80000ba0:	00000000 	sll	$0,$0,0x0

80000ba4 <_Z6outputj>:
80000ba4:	27bdffe0 	addiu	$29,$29,-32
80000ba8:	afbf001c 	sw	$31,28($29)
80000bac:	afbe0018 	sw	$30,24($29)
80000bb0:	03a0f025 	or	$30,$29,$0
80000bb4:	afc40020 	sw	$4,32($30)
80000bb8:	24020020 	addiu	$2,$0,32
80000bbc:	afc20010 	sw	$2,16($30)
80000bc0:	8fc20010 	lw	$2,16($30)
80000bc4:	2443ffff 	addiu	$3,$2,-1
80000bc8:	afc30010 	sw	$3,16($30)
80000bcc:	0002102b 	sltu	$2,$0,$2
80000bd0:	304200ff 	andi	$2,$2,0xff
80000bd4:	10400010 	beqz	$2,80000c18 <_Z6outputj+0x74>
80000bd8:	00000000 	sll	$0,$0,0x0
80000bdc:	8fc30020 	lw	$3,32($30)
80000be0:	8fc20010 	lw	$2,16($30)
80000be4:	00431006 	srlv	$2,$3,$2
80000be8:	304200ff 	andi	$2,$2,0xff
80000bec:	30420001 	andi	$2,$2,0x1
80000bf0:	304200ff 	andi	$2,$2,0xff
80000bf4:	38420030 	xori	$2,$2,0x30
80000bf8:	304200ff 	andi	$2,$2,0xff
80000bfc:	00021600 	sll	$2,$2,0x18
80000c00:	00021603 	sra	$2,$2,0x18
80000c04:	00402025 	or	$4,$2,$0
80000c08:	0c0003bd 	jal	80000ef4 <_Z7putcharc>
80000c0c:	00000000 	sll	$0,$0,0x0
80000c10:	1000ffeb 	beqz	$0,80000bc0 <_Z6outputj+0x1c>
80000c14:	00000000 	sll	$0,$0,0x0
80000c18:	00000000 	sll	$0,$0,0x0
80000c1c:	03c0e825 	or	$29,$30,$0
80000c20:	8fbf001c 	lw	$31,28($29)
80000c24:	8fbe0018 	lw	$30,24($29)
80000c28:	27bd0020 	addiu	$29,$29,32
80000c2c:	03e00008 	jr	$31
80000c30:	00000000 	sll	$0,$0,0x0

80000c34 <_Z4calcji>:
80000c34:	27bdffe8 	addiu	$29,$29,-24
80000c38:	afbf0014 	sw	$31,20($29)
80000c3c:	afbe0010 	sw	$30,16($29)
80000c40:	03a0f025 	or	$30,$29,$0
80000c44:	afc40018 	sw	$4,24($30)
80000c48:	afc5001c 	sw	$5,28($30)
80000c4c:	8fc40018 	lw	$4,24($30)
80000c50:	0c000378 	jal	80000de0 <_Z5ntohlj>
80000c54:	00000000 	sll	$0,$0,0x0
80000c58:	00402025 	or	$4,$2,$0
80000c5c:	24030020 	addiu	$3,$0,32
80000c60:	8fc2001c 	lw	$2,28($30)
80000c64:	00621023 	subu	$2,$3,$2
80000c68:	00441806 	srlv	$3,$4,$2
80000c6c:	24040020 	addiu	$4,$0,32
80000c70:	8fc2001c 	lw	$2,28($30)
80000c74:	00821023 	subu	$2,$4,$2
80000c78:	00431004 	sllv	$2,$3,$2
80000c7c:	00402025 	or	$4,$2,$0
80000c80:	0c000361 	jal	80000d84 <_Z5htonlj>
80000c84:	00000000 	sll	$0,$0,0x0
80000c88:	03c0e825 	or	$29,$30,$0
80000c8c:	8fbf0014 	lw	$31,20($29)
80000c90:	8fbe0010 	lw	$30,16($29)
80000c94:	27bd0018 	addiu	$29,$29,24
80000c98:	03e00008 	jr	$31
80000c9c:	00000000 	sll	$0,$0,0x0

80000ca0 <_Z10IPChecksumPh>:
80000ca0:	27bdffd8 	addiu	$29,$29,-40
80000ca4:	afbf0024 	sw	$31,36($29)
80000ca8:	afbe0020 	sw	$30,32($29)
80000cac:	03a0f025 	or	$30,$29,$0
80000cb0:	afc40028 	sw	$4,40($30)
80000cb4:	8fc20028 	lw	$2,40($30)
80000cb8:	90420000 	lbu	$2,0($2)
80000cbc:	00021080 	sll	$2,$2,0x2
80000cc0:	3042003c 	andi	$2,$2,0x3c
80000cc4:	afc20018 	sw	$2,24($30)
80000cc8:	afc00010 	sw	$0,16($30)
80000ccc:	afc00014 	sw	$0,20($30)
80000cd0:	8fc30014 	lw	$3,20($30)
80000cd4:	8fc20018 	lw	$2,24($30)
80000cd8:	0062102b 	sltu	$2,$3,$2
80000cdc:	10400012 	beqz	$2,80000d28 <_Z10IPChecksumPh+0x88>
80000ce0:	00000000 	sll	$0,$0,0x0
80000ce4:	8fc30014 	lw	$3,20($30)
80000ce8:	2402000a 	addiu	$2,$0,10
80000cec:	10620009 	beq	$3,$2,80000d14 <_Z10IPChecksumPh+0x74>
80000cf0:	00000000 	sll	$0,$0,0x0
80000cf4:	8fc50014 	lw	$5,20($30)
80000cf8:	8fc40028 	lw	$4,40($30)
80000cfc:	0c000259 	jal	80000964 <_Z7getDataPKhm>
80000d00:	00000000 	sll	$0,$0,0x0
80000d04:	00401825 	or	$3,$2,$0
80000d08:	8fc20010 	lw	$2,16($30)
80000d0c:	00431021 	addu	$2,$2,$3
80000d10:	afc20010 	sw	$2,16($30)
80000d14:	8fc20014 	lw	$2,20($30)
80000d18:	24420002 	addiu	$2,$2,2
80000d1c:	afc20014 	sw	$2,20($30)
80000d20:	1000ffeb 	beqz	$0,80000cd0 <_Z10IPChecksumPh+0x30>
80000d24:	00000000 	sll	$0,$0,0x0
80000d28:	8fc30010 	lw	$3,16($30)
80000d2c:	3c020001 	lui	$2,0x1
80000d30:	0062102b 	sltu	$2,$3,$2
80000d34:	14400009 	bnez	$2,80000d5c <_Z10IPChecksumPh+0xbc>
80000d38:	00000000 	sll	$0,$0,0x0
80000d3c:	8fc20010 	lw	$2,16($30)
80000d40:	3043ffff 	andi	$3,$2,0xffff
80000d44:	8fc20010 	lw	$2,16($30)
80000d48:	00021402 	srl	$2,$2,0x10
80000d4c:	00621021 	addu	$2,$3,$2
80000d50:	afc20010 	sw	$2,16($30)
80000d54:	1000fff4 	beqz	$0,80000d28 <_Z10IPChecksumPh+0x88>
80000d58:	00000000 	sll	$0,$0,0x0
80000d5c:	8fc20010 	lw	$2,16($30)
80000d60:	3042ffff 	andi	$2,$2,0xffff
80000d64:	00021027 	nor	$2,$0,$2
80000d68:	3042ffff 	andi	$2,$2,0xffff
80000d6c:	03c0e825 	or	$29,$30,$0
80000d70:	8fbf0024 	lw	$31,36($29)
80000d74:	8fbe0020 	lw	$30,32($29)
80000d78:	27bd0028 	addiu	$29,$29,40
80000d7c:	03e00008 	jr	$31
80000d80:	00000000 	sll	$0,$0,0x0

80000d84 <_Z5htonlj>:
80000d84:	27bdfff8 	addiu	$29,$29,-8
80000d88:	afbe0004 	sw	$30,4($29)
80000d8c:	03a0f025 	or	$30,$29,$0
80000d90:	afc40008 	sw	$4,8($30)
80000d94:	8fc20008 	lw	$2,8($30)
80000d98:	00021e02 	srl	$3,$2,0x18
80000d9c:	8fc20008 	lw	$2,8($30)
80000da0:	00021202 	srl	$2,$2,0x8
80000da4:	3042ff00 	andi	$2,$2,0xff00
80000da8:	00621825 	or	$3,$3,$2
80000dac:	8fc20008 	lw	$2,8($30)
80000db0:	00022200 	sll	$4,$2,0x8
80000db4:	3c0200ff 	lui	$2,0xff
80000db8:	00821024 	and	$2,$4,$2
80000dbc:	00621825 	or	$3,$3,$2
80000dc0:	8fc20008 	lw	$2,8($30)
80000dc4:	00021600 	sll	$2,$2,0x18
80000dc8:	00621025 	or	$2,$3,$2
80000dcc:	03c0e825 	or	$29,$30,$0
80000dd0:	8fbe0004 	lw	$30,4($29)
80000dd4:	27bd0008 	addiu	$29,$29,8
80000dd8:	03e00008 	jr	$31
80000ddc:	00000000 	sll	$0,$0,0x0

80000de0 <_Z5ntohlj>:
80000de0:	27bdfff8 	addiu	$29,$29,-8
80000de4:	afbe0004 	sw	$30,4($29)
80000de8:	03a0f025 	or	$30,$29,$0
80000dec:	afc40008 	sw	$4,8($30)
80000df0:	8fc20008 	lw	$2,8($30)
80000df4:	00021e02 	srl	$3,$2,0x18
80000df8:	8fc20008 	lw	$2,8($30)
80000dfc:	00021202 	srl	$2,$2,0x8
80000e00:	3042ff00 	andi	$2,$2,0xff00
80000e04:	00621825 	or	$3,$3,$2
80000e08:	8fc20008 	lw	$2,8($30)
80000e0c:	00022200 	sll	$4,$2,0x8
80000e10:	3c0200ff 	lui	$2,0xff
80000e14:	00821024 	and	$2,$4,$2
80000e18:	00621825 	or	$3,$3,$2
80000e1c:	8fc20008 	lw	$2,8($30)
80000e20:	00021600 	sll	$2,$2,0x18
80000e24:	00621025 	or	$2,$3,$2
80000e28:	03c0e825 	or	$29,$30,$0
80000e2c:	8fbe0004 	lw	$30,4($29)
80000e30:	27bd0008 	addiu	$29,$29,8
80000e34:	03e00008 	jr	$31
80000e38:	00000000 	sll	$0,$0,0x0

80000e3c <_Z5htonst>:
80000e3c:	27bdfff8 	addiu	$29,$29,-8
80000e40:	afbe0004 	sw	$30,4($29)
80000e44:	03a0f025 	or	$30,$29,$0
80000e48:	00801025 	or	$2,$4,$0
80000e4c:	a7c20008 	sh	$2,8($30)
80000e50:	97c20008 	lhu	$2,8($30)
80000e54:	00021202 	srl	$2,$2,0x8
80000e58:	3042ffff 	andi	$2,$2,0xffff
80000e5c:	00021c00 	sll	$3,$2,0x10
80000e60:	00031c03 	sra	$3,$3,0x10
80000e64:	97c20008 	lhu	$2,8($30)
80000e68:	00021200 	sll	$2,$2,0x8
80000e6c:	00021400 	sll	$2,$2,0x10
80000e70:	00021403 	sra	$2,$2,0x10
80000e74:	00621025 	or	$2,$3,$2
80000e78:	00021400 	sll	$2,$2,0x10
80000e7c:	00021403 	sra	$2,$2,0x10
80000e80:	3042ffff 	andi	$2,$2,0xffff
80000e84:	03c0e825 	or	$29,$30,$0
80000e88:	8fbe0004 	lw	$30,4($29)
80000e8c:	27bd0008 	addiu	$29,$29,8
80000e90:	03e00008 	jr	$31
80000e94:	00000000 	sll	$0,$0,0x0

80000e98 <_Z5ntohst>:
80000e98:	27bdfff8 	addiu	$29,$29,-8
80000e9c:	afbe0004 	sw	$30,4($29)
80000ea0:	03a0f025 	or	$30,$29,$0
80000ea4:	00801025 	or	$2,$4,$0
80000ea8:	a7c20008 	sh	$2,8($30)
80000eac:	97c20008 	lhu	$2,8($30)
80000eb0:	00021202 	srl	$2,$2,0x8
80000eb4:	3042ffff 	andi	$2,$2,0xffff
80000eb8:	00021c00 	sll	$3,$2,0x10
80000ebc:	00031c03 	sra	$3,$3,0x10
80000ec0:	97c20008 	lhu	$2,8($30)
80000ec4:	00021200 	sll	$2,$2,0x8
80000ec8:	00021400 	sll	$2,$2,0x10
80000ecc:	00021403 	sra	$2,$2,0x10
80000ed0:	00621025 	or	$2,$3,$2
80000ed4:	00021400 	sll	$2,$2,0x10
80000ed8:	00021403 	sra	$2,$2,0x10
80000edc:	3042ffff 	andi	$2,$2,0xffff
80000ee0:	03c0e825 	or	$29,$30,$0
80000ee4:	8fbe0004 	lw	$30,4($29)
80000ee8:	27bd0008 	addiu	$29,$29,8
80000eec:	03e00008 	jr	$31
80000ef0:	00000000 	sll	$0,$0,0x0

80000ef4 <_Z7putcharc>:
80000ef4:	27bdfff8 	addiu	$29,$29,-8
80000ef8:	afbe0004 	sw	$30,4($29)
80000efc:	03a0f025 	or	$30,$29,$0
80000f00:	00801025 	or	$2,$4,$0
80000f04:	a3c20008 	sb	$2,8($30)
80000f08:	00000000 	sll	$0,$0,0x0
80000f0c:	03c0e825 	or	$29,$30,$0
80000f10:	8fbe0004 	lw	$30,4($29)
80000f14:	27bd0008 	addiu	$29,$29,8
80000f18:	03e00008 	jr	$31
80000f1c:	00000000 	sll	$0,$0,0x0

80000f20 <_Z6printfPKc>:
80000f20:	27bdffe8 	addiu	$29,$29,-24
80000f24:	afbf0014 	sw	$31,20($29)
80000f28:	afbe0010 	sw	$30,16($29)
80000f2c:	03a0f025 	or	$30,$29,$0
80000f30:	afc40018 	sw	$4,24($30)
80000f34:	8fc20018 	lw	$2,24($30)
80000f38:	80420000 	lb	$2,0($2)
80000f3c:	1040000a 	beqz	$2,80000f68 <_Z6printfPKc+0x48>
80000f40:	00000000 	sll	$0,$0,0x0
80000f44:	8fc20018 	lw	$2,24($30)
80000f48:	24430001 	addiu	$3,$2,1
80000f4c:	afc30018 	sw	$3,24($30)
80000f50:	80420000 	lb	$2,0($2)
80000f54:	00402025 	or	$4,$2,$0
80000f58:	0c000188 	jal	80000620 <putc>
80000f5c:	00000000 	sll	$0,$0,0x0
80000f60:	1000fff4 	beqz	$0,80000f34 <_Z6printfPKc+0x14>
80000f64:	00000000 	sll	$0,$0,0x0
80000f68:	00000000 	sll	$0,$0,0x0
80000f6c:	03c0e825 	or	$29,$30,$0
80000f70:	8fbf0014 	lw	$31,20($29)
80000f74:	8fbe0010 	lw	$30,16($29)
80000f78:	27bd0018 	addiu	$29,$29,24
80000f7c:	03e00008 	jr	$31
80000f80:	00000000 	sll	$0,$0,0x0

80000f84 <_Z10rec_printfi>:
80000f84:	27bdffe0 	addiu	$29,$29,-32
80000f88:	afbf001c 	sw	$31,28($29)
80000f8c:	afbe0018 	sw	$30,24($29)
80000f90:	03a0f025 	or	$30,$29,$0
80000f94:	afc40020 	sw	$4,32($30)
80000f98:	8fc20020 	lw	$2,32($30)
80000f9c:	10400016 	beqz	$2,80000ff8 <_Z10rec_printfi+0x74>
80000fa0:	00000000 	sll	$0,$0,0x0
80000fa4:	27c20014 	addiu	$2,$30,20
80000fa8:	00403825 	or	$7,$2,$0
80000fac:	27c20010 	addiu	$2,$30,16
80000fb0:	00403025 	or	$6,$2,$0
80000fb4:	2405000a 	addiu	$5,$0,10
80000fb8:	8fc40020 	lw	$4,32($30)
80000fbc:	0c0004a3 	jal	8000128c <_Z3diviiRiS_>
80000fc0:	00000000 	sll	$0,$0,0x0
80000fc4:	8fc20010 	lw	$2,16($30)
80000fc8:	00402025 	or	$4,$2,$0
80000fcc:	0c0003e1 	jal	80000f84 <_Z10rec_printfi>
80000fd0:	00000000 	sll	$0,$0,0x0
80000fd4:	8fc20014 	lw	$2,20($30)
80000fd8:	304200ff 	andi	$2,$2,0xff
80000fdc:	24420030 	addiu	$2,$2,48
80000fe0:	304200ff 	andi	$2,$2,0xff
80000fe4:	00021600 	sll	$2,$2,0x18
80000fe8:	00021603 	sra	$2,$2,0x18
80000fec:	00402025 	or	$4,$2,$0
80000ff0:	0c000188 	jal	80000620 <putc>
80000ff4:	00000000 	sll	$0,$0,0x0
80000ff8:	00000000 	sll	$0,$0,0x0
80000ffc:	03c0e825 	or	$29,$30,$0
80001000:	8fbf001c 	lw	$31,28($29)
80001004:	8fbe0018 	lw	$30,24($29)
80001008:	27bd0020 	addiu	$29,$29,32
8000100c:	03e00008 	jr	$31
80001010:	00000000 	sll	$0,$0,0x0

80001014 <_Z6printfi>:
80001014:	27bdffe8 	addiu	$29,$29,-24
80001018:	afbf0014 	sw	$31,20($29)
8000101c:	afbe0010 	sw	$30,16($29)
80001020:	03a0f025 	or	$30,$29,$0
80001024:	afc40018 	sw	$4,24($30)
80001028:	8fc20018 	lw	$2,24($30)
8000102c:	10400006 	beqz	$2,80001048 <_Z6printfi+0x34>
80001030:	00000000 	sll	$0,$0,0x0
80001034:	8fc40018 	lw	$4,24($30)
80001038:	0c0003e1 	jal	80000f84 <_Z10rec_printfi>
8000103c:	00000000 	sll	$0,$0,0x0
80001040:	10000004 	beqz	$0,80001054 <_Z6printfi+0x40>
80001044:	00000000 	sll	$0,$0,0x0
80001048:	24040030 	addiu	$4,$0,48
8000104c:	0c000188 	jal	80000620 <putc>
80001050:	00000000 	sll	$0,$0,0x0
80001054:	00000000 	sll	$0,$0,0x0
80001058:	03c0e825 	or	$29,$30,$0
8000105c:	8fbf0014 	lw	$31,20($29)
80001060:	8fbe0010 	lw	$30,16($29)
80001064:	27bd0018 	addiu	$29,$29,24
80001068:	03e00008 	jr	$31
8000106c:	00000000 	sll	$0,$0,0x0

80001070 <_Z6memsetPvcm>:
80001070:	27bdfff0 	addiu	$29,$29,-16
80001074:	afbe000c 	sw	$30,12($29)
80001078:	03a0f025 	or	$30,$29,$0
8000107c:	afc40010 	sw	$4,16($30)
80001080:	00a01025 	or	$2,$5,$0
80001084:	afc60018 	sw	$6,24($30)
80001088:	a3c20014 	sb	$2,20($30)
8000108c:	8fc20010 	lw	$2,16($30)
80001090:	afc20000 	sw	$2,0($30)
80001094:	8fc20018 	lw	$2,24($30)
80001098:	2443ffff 	addiu	$3,$2,-1
8000109c:	afc30018 	sw	$3,24($30)
800010a0:	0002102b 	sltu	$2,$0,$2
800010a4:	304200ff 	andi	$2,$2,0xff
800010a8:	10400008 	beqz	$2,800010cc <_Z6memsetPvcm+0x5c>
800010ac:	00000000 	sll	$0,$0,0x0
800010b0:	8fc20000 	lw	$2,0($30)
800010b4:	24430001 	addiu	$3,$2,1
800010b8:	afc30000 	sw	$3,0($30)
800010bc:	93c30014 	lbu	$3,20($30)
800010c0:	a0430000 	sb	$3,0($2)
800010c4:	1000fff3 	beqz	$0,80001094 <_Z6memsetPvcm+0x24>
800010c8:	00000000 	sll	$0,$0,0x0
800010cc:	00000000 	sll	$0,$0,0x0
800010d0:	03c0e825 	or	$29,$30,$0
800010d4:	8fbe000c 	lw	$30,12($29)
800010d8:	27bd0010 	addiu	$29,$29,16
800010dc:	03e00008 	jr	$31
800010e0:	00000000 	sll	$0,$0,0x0

800010e4 <_Z6memcpyPvS_m>:
800010e4:	27bdfff0 	addiu	$29,$29,-16
800010e8:	afbe000c 	sw	$30,12($29)
800010ec:	03a0f025 	or	$30,$29,$0
800010f0:	afc40010 	sw	$4,16($30)
800010f4:	afc50014 	sw	$5,20($30)
800010f8:	afc60018 	sw	$6,24($30)
800010fc:	8fc20010 	lw	$2,16($30)
80001100:	afc20000 	sw	$2,0($30)
80001104:	8fc20014 	lw	$2,20($30)
80001108:	afc20004 	sw	$2,4($30)
8000110c:	8fc20018 	lw	$2,24($30)
80001110:	2443ffff 	addiu	$3,$2,-1
80001114:	afc30018 	sw	$3,24($30)
80001118:	0002102b 	sltu	$2,$0,$2
8000111c:	304200ff 	andi	$2,$2,0xff
80001120:	1040000b 	beqz	$2,80001150 <_Z6memcpyPvS_m+0x6c>
80001124:	00000000 	sll	$0,$0,0x0
80001128:	8fc30004 	lw	$3,4($30)
8000112c:	24620001 	addiu	$2,$3,1
80001130:	afc20004 	sw	$2,4($30)
80001134:	8fc20000 	lw	$2,0($30)
80001138:	24440001 	addiu	$4,$2,1
8000113c:	afc40000 	sw	$4,0($30)
80001140:	80630000 	lb	$3,0($3)
80001144:	a0430000 	sb	$3,0($2)
80001148:	1000fff0 	beqz	$0,8000110c <_Z6memcpyPvS_m+0x28>
8000114c:	00000000 	sll	$0,$0,0x0
80001150:	00000000 	sll	$0,$0,0x0
80001154:	03c0e825 	or	$29,$30,$0
80001158:	8fbe000c 	lw	$30,12($29)
8000115c:	27bd0010 	addiu	$29,$29,16
80001160:	03e00008 	jr	$31
80001164:	00000000 	sll	$0,$0,0x0

80001168 <_Z3minjj>:
80001168:	27bdfff8 	addiu	$29,$29,-8
8000116c:	afbe0004 	sw	$30,4($29)
80001170:	03a0f025 	or	$30,$29,$0
80001174:	afc40008 	sw	$4,8($30)
80001178:	afc5000c 	sw	$5,12($30)
8000117c:	8fc30008 	lw	$3,8($30)
80001180:	8fc2000c 	lw	$2,12($30)
80001184:	0043102b 	sltu	$2,$2,$3
80001188:	10400004 	beqz	$2,8000119c <_Z3minjj+0x34>
8000118c:	00000000 	sll	$0,$0,0x0
80001190:	8fc2000c 	lw	$2,12($30)
80001194:	10000002 	beqz	$0,800011a0 <_Z3minjj+0x38>
80001198:	00000000 	sll	$0,$0,0x0
8000119c:	8fc20008 	lw	$2,8($30)
800011a0:	03c0e825 	or	$29,$30,$0
800011a4:	8fbe0004 	lw	$30,4($29)
800011a8:	27bd0008 	addiu	$29,$29,8
800011ac:	03e00008 	jr	$31
800011b0:	00000000 	sll	$0,$0,0x0

800011b4 <_Z7hextochi>:
800011b4:	27bdfff8 	addiu	$29,$29,-8
800011b8:	afbe0004 	sw	$30,4($29)
800011bc:	03a0f025 	or	$30,$29,$0
800011c0:	afc40008 	sw	$4,8($30)
800011c4:	8fc20008 	lw	$2,8($30)
800011c8:	2842000a 	slti	$2,$2,10
800011cc:	10400009 	beqz	$2,800011f4 <_Z7hextochi+0x40>
800011d0:	00000000 	sll	$0,$0,0x0
800011d4:	8fc20008 	lw	$2,8($30)
800011d8:	304200ff 	andi	$2,$2,0xff
800011dc:	24420030 	addiu	$2,$2,48
800011e0:	304200ff 	andi	$2,$2,0xff
800011e4:	00021600 	sll	$2,$2,0x18
800011e8:	00021603 	sra	$2,$2,0x18
800011ec:	10000007 	beqz	$0,8000120c <_Z7hextochi+0x58>
800011f0:	00000000 	sll	$0,$0,0x0
800011f4:	8fc20008 	lw	$2,8($30)
800011f8:	304200ff 	andi	$2,$2,0xff
800011fc:	24420057 	addiu	$2,$2,87
80001200:	304200ff 	andi	$2,$2,0xff
80001204:	00021600 	sll	$2,$2,0x18
80001208:	00021603 	sra	$2,$2,0x18
8000120c:	03c0e825 	or	$29,$30,$0
80001210:	8fbe0004 	lw	$30,4($29)
80001214:	27bd0008 	addiu	$29,$29,8
80001218:	03e00008 	jr	$31
8000121c:	00000000 	sll	$0,$0,0x0

80001220 <_Z9read_addrPh>:
80001220:	27bdfff8 	addiu	$29,$29,-8
80001224:	afbe0004 	sw	$30,4($29)
80001228:	03a0f025 	or	$30,$29,$0
8000122c:	afc40008 	sw	$4,8($30)
80001230:	8fc20008 	lw	$2,8($30)
80001234:	90420000 	lbu	$2,0($2)
80001238:	00401825 	or	$3,$2,$0
8000123c:	8fc20008 	lw	$2,8($30)
80001240:	24420001 	addiu	$2,$2,1
80001244:	90420000 	lbu	$2,0($2)
80001248:	00021200 	sll	$2,$2,0x8
8000124c:	00621825 	or	$3,$3,$2
80001250:	8fc20008 	lw	$2,8($30)
80001254:	24420002 	addiu	$2,$2,2
80001258:	90420000 	lbu	$2,0($2)
8000125c:	00021400 	sll	$2,$2,0x10
80001260:	00621825 	or	$3,$3,$2
80001264:	8fc20008 	lw	$2,8($30)
80001268:	24420003 	addiu	$2,$2,3
8000126c:	90420000 	lbu	$2,0($2)
80001270:	00021600 	sll	$2,$2,0x18
80001274:	00621025 	or	$2,$3,$2
80001278:	03c0e825 	or	$29,$30,$0
8000127c:	8fbe0004 	lw	$30,4($29)
80001280:	27bd0008 	addiu	$29,$29,8
80001284:	03e00008 	jr	$31
80001288:	00000000 	sll	$0,$0,0x0

8000128c <_Z3diviiRiS_>:
8000128c:	27bdfff8 	addiu	$29,$29,-8
80001290:	afbe0004 	sw	$30,4($29)
80001294:	03a0f025 	or	$30,$29,$0
80001298:	afc40008 	sw	$4,8($30)
8000129c:	afc5000c 	sw	$5,12($30)
800012a0:	afc60010 	sw	$6,16($30)
800012a4:	afc70014 	sw	$7,20($30)
800012a8:	8fc20008 	lw	$2,8($30)
800012ac:	04410004 	bgez	$2,800012c0 <_Z3diviiRiS_+0x34>
800012b0:	00000000 	sll	$0,$0,0x0
800012b4:	8fc20008 	lw	$2,8($30)
800012b8:	00021023 	negu	$2,$2
800012bc:	afc20008 	sw	$2,8($30)
800012c0:	8fc2000c 	lw	$2,12($30)
800012c4:	04410004 	bgez	$2,800012d8 <_Z3diviiRiS_+0x4c>
800012c8:	00000000 	sll	$0,$0,0x0
800012cc:	8fc2000c 	lw	$2,12($30)
800012d0:	00021023 	negu	$2,$2
800012d4:	afc2000c 	sw	$2,12($30)
800012d8:	8fc20010 	lw	$2,16($30)
800012dc:	ac400000 	sw	$0,0($2)
800012e0:	8fc20014 	lw	$2,20($30)
800012e4:	8fc30008 	lw	$3,8($30)
800012e8:	ac430000 	sw	$3,0($2)
800012ec:	8fc20014 	lw	$2,20($30)
800012f0:	8c420000 	lw	$2,0($2)
800012f4:	8fc3000c 	lw	$3,12($30)
800012f8:	0043102a 	slt	$2,$2,$3
800012fc:	1440000e 	bnez	$2,80001338 <_Z3diviiRiS_+0xac>
80001300:	00000000 	sll	$0,$0,0x0
80001304:	8fc20014 	lw	$2,20($30)
80001308:	8c430000 	lw	$3,0($2)
8000130c:	8fc2000c 	lw	$2,12($30)
80001310:	00621823 	subu	$3,$3,$2
80001314:	8fc20014 	lw	$2,20($30)
80001318:	ac430000 	sw	$3,0($2)
8000131c:	8fc20010 	lw	$2,16($30)
80001320:	8c420000 	lw	$2,0($2)
80001324:	24430001 	addiu	$3,$2,1
80001328:	8fc20010 	lw	$2,16($30)
8000132c:	ac430000 	sw	$3,0($2)
80001330:	1000ffee 	beqz	$0,800012ec <_Z3diviiRiS_+0x60>
80001334:	00000000 	sll	$0,$0,0x0
80001338:	00000000 	sll	$0,$0,0x0
8000133c:	03c0e825 	or	$29,$30,$0
80001340:	8fbe0004 	lw	$30,4($29)
80001344:	27bd0008 	addiu	$29,$29,8
80001348:	03e00008 	jr	$31
8000134c:	00000000 	sll	$0,$0,0x0

80001350 <Init>:
80001350:	27bdfff0 	addiu	$29,$29,-16
80001354:	afbe000c 	sw	$30,12($29)
80001358:	03a0f025 	or	$30,$29,$0
8000135c:	afc40010 	sw	$4,16($30)
80001360:	3c028000 	lui	$2,0x8000
80001364:	ac402820 	sw	$0,10272($2)
80001368:	3c028000 	lui	$2,0x8000
8000136c:	ac402824 	sw	$0,10276($2)
80001370:	afc00000 	sw	$0,0($30)
80001374:	8fc20000 	lw	$2,0($30)
80001378:	28420004 	slti	$2,$2,4
8000137c:	10400016 	beqz	$2,800013d8 <Init+0x88>
80001380:	00000000 	sll	$0,$0,0x0
80001384:	8fc20000 	lw	$2,0($30)
80001388:	00021080 	sll	$2,$2,0x2
8000138c:	8fc30010 	lw	$3,16($30)
80001390:	00621821 	addu	$3,$3,$2
80001394:	3c02bfd0 	lui	$2,0xbfd0
80001398:	34420410 	ori	$2,$2,0x410
8000139c:	8c630000 	lw	$3,0($3)
800013a0:	ac430000 	sw	$3,0($2)
800013a4:	3c02bfd0 	lui	$2,0xbfd0
800013a8:	3442041c 	ori	$2,$2,0x41c
800013ac:	8fc30000 	lw	$3,0($30)
800013b0:	ac430000 	sw	$3,0($2)
800013b4:	3c02bfd0 	lui	$2,0xbfd0
800013b8:	34420420 	ori	$2,$2,0x420
800013bc:	24030002 	addiu	$3,$0,2
800013c0:	ac430000 	sw	$3,0($2)
800013c4:	8fc20000 	lw	$2,0($30)
800013c8:	24420001 	addiu	$2,$2,1
800013cc:	afc20000 	sw	$2,0($30)
800013d0:	1000ffe8 	beqz	$0,80001374 <Init+0x24>
800013d4:	00000000 	sll	$0,$0,0x0
800013d8:	00001025 	or	$2,$0,$0
800013dc:	03c0e825 	or	$29,$30,$0
800013e0:	8fbe000c 	lw	$30,12($29)
800013e4:	27bd0010 	addiu	$29,$29,16
800013e8:	03e00008 	jr	$31
800013ec:	00000000 	sll	$0,$0,0x0

800013f0 <GetTicks>:
800013f0:	27bdffe8 	addiu	$29,$29,-24
800013f4:	afbe0014 	sw	$30,20($29)
800013f8:	03a0f025 	or	$30,$29,$0
800013fc:	3c0abfd0 	lui	$10,0xbfd0
80001400:	354a0440 	ori	$10,$10,0x440
80001404:	8d4a0000 	lw	$10,0($10)
80001408:	01404025 	or	$8,$10,$0
8000140c:	00004825 	or	$9,$0,$0
80001410:	afc80000 	sw	$8,0($30)
80001414:	afc90004 	sw	$9,4($30)
80001418:	3c08bfd0 	lui	$8,0xbfd0
8000141c:	35080444 	ori	$8,$8,0x444
80001420:	8d080000 	lw	$8,0($8)
80001424:	01002025 	or	$4,$8,$0
80001428:	00002825 	or	$5,$0,$0
8000142c:	afc40008 	sw	$4,8($30)
80001430:	afc5000c 	sw	$5,12($30)
80001434:	8fc40008 	lw	$4,8($30)
80001438:	8fc5000c 	lw	$5,12($30)
8000143c:	00041800 	sll	$3,$4,0x0
80001440:	00001025 	or	$2,$0,$0
80001444:	8fc40000 	lw	$4,0($30)
80001448:	8fc50004 	lw	$5,4($30)
8000144c:	00443025 	or	$6,$2,$4
80001450:	00653825 	or	$7,$3,$5
80001454:	00c01025 	or	$2,$6,$0
80001458:	00e01825 	or	$3,$7,$0
8000145c:	03c0e825 	or	$29,$30,$0
80001460:	8fbe0014 	lw	$30,20($29)
80001464:	27bd0018 	addiu	$29,$29,24
80001468:	03e00008 	jr	$31
8000146c:	00000000 	sll	$0,$0,0x0

80001470 <ReceiveEthernetFrame>:
80001470:	27bdffc8 	addiu	$29,$29,-56
80001474:	afbf0034 	sw	$31,52($29)
80001478:	afbe0030 	sw	$30,48($29)
8000147c:	afb1002c 	sw	$17,44($29)
80001480:	afb00028 	sw	$16,40($29)
80001484:	03a0f025 	or	$30,$29,$0
80001488:	afc40038 	sw	$4,56($30)
8000148c:	afc60040 	sw	$6,64($30)
80001490:	afc70044 	sw	$7,68($30)
80001494:	3c02bfd0 	lui	$2,0xbfd0
80001498:	34420400 	ori	$2,$2,0x400
8000149c:	afc20014 	sw	$2,20($30)
800014a0:	0c0004fc 	jal	800013f0 <GetTicks>
800014a4:	00000000 	sll	$0,$0,0x0
800014a8:	afc20018 	sw	$2,24($30)
800014ac:	afc3001c 	sw	$3,28($30)
800014b0:	8fc30040 	lw	$3,64($30)
800014b4:	2402ffff 	addiu	$2,$0,-1
800014b8:	1462000d 	bne	$3,$2,800014f0 <ReceiveEthernetFrame+0x80>
800014bc:	00000000 	sll	$0,$0,0x0
800014c0:	8fc30044 	lw	$3,68($30)
800014c4:	2402ffff 	addiu	$2,$0,-1
800014c8:	14620009 	bne	$3,$2,800014f0 <ReceiveEthernetFrame+0x80>
800014cc:	00000000 	sll	$0,$0,0x0
800014d0:	8fc20040 	lw	$2,64($30)
800014d4:	8fc30044 	lw	$3,68($30)
800014d8:	000327c0 	sll	$4,$3,0x1f
800014dc:	00028042 	srl	$16,$2,0x1
800014e0:	00908025 	or	$16,$4,$16
800014e4:	00038842 	srl	$17,$3,0x1
800014e8:	afd00040 	sw	$16,64($30)
800014ec:	afd10044 	sw	$17,68($30)
800014f0:	8fc20014 	lw	$2,20($30)
800014f4:	8c420000 	lw	$2,0($2)
800014f8:	afc20020 	sw	$2,32($30)
800014fc:	0c0004fc 	jal	800013f0 <GetTicks>
80001500:	00000000 	sll	$0,$0,0x0
80001504:	00402025 	or	$4,$2,$0
80001508:	00602825 	or	$5,$3,$0
8000150c:	8fc60018 	lw	$6,24($30)
80001510:	8fc7001c 	lw	$7,28($30)
80001514:	00861023 	subu	$2,$4,$6
80001518:	0082402b 	sltu	$8,$4,$2
8000151c:	00a71823 	subu	$3,$5,$7
80001520:	00682023 	subu	$4,$3,$8
80001524:	00801825 	or	$3,$4,$0
80001528:	00402025 	or	$4,$2,$0
8000152c:	00602825 	or	$5,$3,$0
80001530:	8fc20040 	lw	$2,64($30)
80001534:	8fc30044 	lw	$3,68($30)
80001538:	24070001 	addiu	$7,$0,1
8000153c:	00a3302b 	sltu	$6,$5,$3
80001540:	14c00007 	bnez	$6,80001560 <ReceiveEthernetFrame+0xf0>
80001544:	00000000 	sll	$0,$0,0x0
80001548:	00a03025 	or	$6,$5,$0
8000154c:	14660005 	bne	$3,$6,80001564 <ReceiveEthernetFrame+0xf4>
80001550:	00000000 	sll	$0,$0,0x0
80001554:	0082102b 	sltu	$2,$4,$2
80001558:	10400002 	beqz	$2,80001564 <ReceiveEthernetFrame+0xf4>
8000155c:	00000000 	sll	$0,$0,0x0
80001560:	00003825 	or	$7,$0,$0
80001564:	30e200ff 	andi	$2,$7,0xff
80001568:	10400004 	beqz	$2,8000157c <ReceiveEthernetFrame+0x10c>
8000156c:	00000000 	sll	$0,$0,0x0
80001570:	00001025 	or	$2,$0,$0
80001574:	1000006a 	beqz	$0,80001720 <ReceiveEthernetFrame+0x2b0>
80001578:	00000000 	sll	$0,$0,0x0
8000157c:	3c028000 	lui	$2,0x8000
80001580:	8c422820 	lw	$2,10272($2)
80001584:	8fc30020 	lw	$3,32($30)
80001588:	14620003 	bne	$3,$2,80001598 <ReceiveEthernetFrame+0x128>
8000158c:	00000000 	sll	$0,$0,0x0
80001590:	1000ffd7 	beqz	$0,800014f0 <ReceiveEthernetFrame+0x80>
80001594:	00000000 	sll	$0,$0,0x0
80001598:	00000000 	sll	$0,$0,0x0
8000159c:	3c028000 	lui	$2,0x8000
800015a0:	8c422820 	lw	$2,10272($2)
800015a4:	8fc30020 	lw	$3,32($30)
800015a8:	0062102a 	slt	$2,$3,$2
800015ac:	304200ff 	andi	$2,$2,0xff
800015b0:	00401825 	or	$3,$2,$0
800015b4:	3c028000 	lui	$2,0x8000
800015b8:	ac432824 	sw	$3,10276($2)
800015bc:	3c028000 	lui	$2,0x8000
800015c0:	8c432820 	lw	$3,10272($2)
800015c4:	24020080 	addiu	$2,$0,128
800015c8:	14620003 	bne	$3,$2,800015d8 <ReceiveEthernetFrame+0x168>
800015cc:	00000000 	sll	$0,$0,0x0
800015d0:	3c028000 	lui	$2,0x8000
800015d4:	ac402820 	sw	$0,10272($2)
800015d8:	3c028000 	lui	$2,0x8000
800015dc:	8c422820 	lw	$2,10272($2)
800015e0:	24440001 	addiu	$4,$2,1
800015e4:	3c038000 	lui	$3,0x8000
800015e8:	ac642820 	sw	$4,10272($3)
800015ec:	000212c0 	sll	$2,$2,0xb
800015f0:	00401825 	or	$3,$2,$0
800015f4:	3c028060 	lui	$2,0x8060
800015f8:	34420004 	ori	$2,$2,0x4
800015fc:	00621021 	addu	$2,$3,$2
80001600:	00401825 	or	$3,$2,$0
80001604:	8fc20038 	lw	$2,56($30)
80001608:	ac430000 	sw	$3,0($2)
8000160c:	8fc20038 	lw	$2,56($30)
80001610:	8c420000 	lw	$2,0($2)
80001614:	2442000f 	addiu	$2,$2,15
80001618:	90420000 	lbu	$2,0($2)
8000161c:	2443ffff 	addiu	$3,$2,-1
80001620:	8fc20048 	lw	$2,72($30)
80001624:	ac430000 	sw	$3,0($2)
80001628:	8fc20038 	lw	$2,56($30)
8000162c:	8c420000 	lw	$2,0($2)
80001630:	8c42fffc 	lw	$2,-4($2)
80001634:	afc20024 	sw	$2,36($30)
80001638:	24050006 	addiu	$5,$0,6
8000163c:	3c028000 	lui	$2,0x8000
80001640:	24442170 	addiu	$4,$2,8560
80001644:	0c0001e4 	jal	80000790 <puts>
80001648:	00000000 	sll	$0,$0,0x0
8000164c:	afc00010 	sw	$0,16($30)
80001650:	8fc30010 	lw	$3,16($30)
80001654:	8fc20024 	lw	$2,36($30)
80001658:	0062102a 	slt	$2,$3,$2
8000165c:	1040002c 	beqz	$2,80001710 <ReceiveEthernetFrame+0x2a0>
80001660:	00000000 	sll	$0,$0,0x0
80001664:	8fc20038 	lw	$2,56($30)
80001668:	8c430000 	lw	$3,0($2)
8000166c:	8fc20010 	lw	$2,16($30)
80001670:	00621021 	addu	$2,$3,$2
80001674:	90420000 	lbu	$2,0($2)
80001678:	00021102 	srl	$2,$2,0x4
8000167c:	304200ff 	andi	$2,$2,0xff
80001680:	00402025 	or	$4,$2,$0
80001684:	0c00046d 	jal	800011b4 <_Z7hextochi>
80001688:	00000000 	sll	$0,$0,0x0
8000168c:	00402025 	or	$4,$2,$0
80001690:	0c000188 	jal	80000620 <putc>
80001694:	00000000 	sll	$0,$0,0x0
80001698:	8fc20038 	lw	$2,56($30)
8000169c:	8c430000 	lw	$3,0($2)
800016a0:	8fc20010 	lw	$2,16($30)
800016a4:	00621021 	addu	$2,$3,$2
800016a8:	90420000 	lbu	$2,0($2)
800016ac:	3042000f 	andi	$2,$2,0xf
800016b0:	00402025 	or	$4,$2,$0
800016b4:	0c00046d 	jal	800011b4 <_Z7hextochi>
800016b8:	00000000 	sll	$0,$0,0x0
800016bc:	00402025 	or	$4,$2,$0
800016c0:	0c000188 	jal	80000620 <putc>
800016c4:	00000000 	sll	$0,$0,0x0
800016c8:	8fc20010 	lw	$2,16($30)
800016cc:	3043000f 	andi	$3,$2,0xf
800016d0:	2402000f 	addiu	$2,$0,15
800016d4:	14620006 	bne	$3,$2,800016f0 <ReceiveEthernetFrame+0x280>
800016d8:	00000000 	sll	$0,$0,0x0
800016dc:	2404000a 	addiu	$4,$0,10
800016e0:	0c000188 	jal	80000620 <putc>
800016e4:	00000000 	sll	$0,$0,0x0
800016e8:	10000004 	beqz	$0,800016fc <ReceiveEthernetFrame+0x28c>
800016ec:	00000000 	sll	$0,$0,0x0
800016f0:	24040020 	addiu	$4,$0,32
800016f4:	0c000188 	jal	80000620 <putc>
800016f8:	00000000 	sll	$0,$0,0x0
800016fc:	8fc20010 	lw	$2,16($30)
80001700:	24420001 	addiu	$2,$2,1
80001704:	afc20010 	sw	$2,16($30)
80001708:	1000ffd1 	beqz	$0,80001650 <ReceiveEthernetFrame+0x1e0>
8000170c:	00000000 	sll	$0,$0,0x0
80001710:	2404000a 	addiu	$4,$0,10
80001714:	0c000188 	jal	80000620 <putc>
80001718:	00000000 	sll	$0,$0,0x0
8000171c:	8fc20024 	lw	$2,36($30)
80001720:	03c0e825 	or	$29,$30,$0
80001724:	8fbf0034 	lw	$31,52($29)
80001728:	8fbe0030 	lw	$30,48($29)
8000172c:	8fb1002c 	lw	$17,44($29)
80001730:	8fb00028 	lw	$16,40($29)
80001734:	27bd0038 	addiu	$29,$29,56
80001738:	03e00008 	jr	$31
8000173c:	00000000 	sll	$0,$0,0x0

80001740 <SendEthernetFrame>:
80001740:	27bdffe0 	addiu	$29,$29,-32
80001744:	afbf001c 	sw	$31,28($29)
80001748:	afbe0018 	sw	$30,24($29)
8000174c:	03a0f025 	or	$30,$29,$0
80001750:	afc40020 	sw	$4,32($30)
80001754:	afc50024 	sw	$5,36($30)
80001758:	afc60028 	sw	$6,40($30)
8000175c:	3c028000 	lui	$2,0x8000
80001760:	24442178 	addiu	$4,$2,8568
80001764:	0c0003c8 	jal	80000f20 <_Z6printfPKc>
80001768:	00000000 	sll	$0,$0,0x0
8000176c:	8fc20028 	lw	$2,40($30)
80001770:	00402025 	or	$4,$2,$0
80001774:	0c000405 	jal	80001014 <_Z6printfi>
80001778:	00000000 	sll	$0,$0,0x0
8000177c:	3c028000 	lui	$2,0x8000
80001780:	244421a4 	addiu	$4,$2,8612
80001784:	0c0003c8 	jal	80000f20 <_Z6printfPKc>
80001788:	00000000 	sll	$0,$0,0x0
8000178c:	24040020 	addiu	$4,$0,32
80001790:	0c000405 	jal	80001014 <_Z6printfi>
80001794:	00000000 	sll	$0,$0,0x0
80001798:	3c028000 	lui	$2,0x8000
8000179c:	244421a8 	addiu	$4,$2,8616
800017a0:	0c0003c8 	jal	80000f20 <_Z6printfPKc>
800017a4:	00000000 	sll	$0,$0,0x0
800017a8:	8fc20024 	lw	$2,36($30)
800017ac:	24030002 	addiu	$3,$0,2
800017b0:	a0430000 	sb	$3,0($2)
800017b4:	8fc20024 	lw	$2,36($30)
800017b8:	24420001 	addiu	$2,$2,1
800017bc:	24030002 	addiu	$3,$0,2
800017c0:	a0430000 	sb	$3,0($2)
800017c4:	8fc20024 	lw	$2,36($30)
800017c8:	24420002 	addiu	$2,$2,2
800017cc:	24030003 	addiu	$3,$0,3
800017d0:	a0430000 	sb	$3,0($2)
800017d4:	8fc20024 	lw	$2,36($30)
800017d8:	24420003 	addiu	$2,$2,3
800017dc:	24030003 	addiu	$3,$0,3
800017e0:	a0430000 	sb	$3,0($2)
800017e4:	8fc20024 	lw	$2,36($30)
800017e8:	24420004 	addiu	$2,$2,4
800017ec:	a0400000 	sb	$0,0($2)
800017f0:	8fc20024 	lw	$2,36($30)
800017f4:	24420005 	addiu	$2,$2,5
800017f8:	a0400000 	sb	$0,0($2)
800017fc:	8fc20024 	lw	$2,36($30)
80001800:	2442000c 	addiu	$2,$2,12
80001804:	2403ff81 	addiu	$3,$0,-127
80001808:	a0430000 	sb	$3,0($2)
8000180c:	8fc20024 	lw	$2,36($30)
80001810:	2442000d 	addiu	$2,$2,13
80001814:	a0400000 	sb	$0,0($2)
80001818:	8fc20024 	lw	$2,36($30)
8000181c:	2442000e 	addiu	$2,$2,14
80001820:	a0400000 	sb	$0,0($2)
80001824:	8fc20020 	lw	$2,32($30)
80001828:	304300ff 	andi	$3,$2,0xff
8000182c:	8fc20024 	lw	$2,36($30)
80001830:	2442000f 	addiu	$2,$2,15
80001834:	24630001 	addiu	$3,$3,1
80001838:	306300ff 	andi	$3,$3,0xff
8000183c:	a0430000 	sb	$3,0($2)
80001840:	8fc20024 	lw	$2,36($30)
80001844:	24420010 	addiu	$2,$2,16
80001848:	24030008 	addiu	$3,$0,8
8000184c:	a0430000 	sb	$3,0($2)
80001850:	8fc20024 	lw	$2,36($30)
80001854:	24420011 	addiu	$2,$2,17
80001858:	a0400000 	sb	$0,0($2)
8000185c:	8fc20024 	lw	$2,36($30)
80001860:	2442fffc 	addiu	$2,$2,-4
80001864:	afc20024 	sw	$2,36($30)
80001868:	8fc30028 	lw	$3,40($30)
8000186c:	8fc20024 	lw	$2,36($30)
80001870:	ac430000 	sw	$3,0($2)
80001874:	3c02bfd0 	lui	$2,0xbfd0
80001878:	34420404 	ori	$2,$2,0x404
8000187c:	afc20014 	sw	$2,20($30)
80001880:	8fc20014 	lw	$2,20($30)
80001884:	8c420000 	lw	$2,0($2)
80001888:	30420001 	andi	$2,$2,0x1
8000188c:	10400003 	beqz	$2,8000189c <SendEthernetFrame+0x15c>
80001890:	00000000 	sll	$0,$0,0x0
80001894:	1000fffa 	beqz	$0,80001880 <SendEthernetFrame+0x140>
80001898:	00000000 	sll	$0,$0,0x0
8000189c:	00000000 	sll	$0,$0,0x0
800018a0:	3c02bfd0 	lui	$2,0xbfd0
800018a4:	34420408 	ori	$2,$2,0x408
800018a8:	8fc30024 	lw	$3,36($30)
800018ac:	ac430000 	sw	$3,0($2)
800018b0:	24050006 	addiu	$5,$0,6
800018b4:	3c028000 	lui	$2,0x8000
800018b8:	244421ac 	addiu	$4,$2,8620
800018bc:	0c0001e4 	jal	80000790 <puts>
800018c0:	00000000 	sll	$0,$0,0x0
800018c4:	afc00010 	sw	$0,16($30)
800018c8:	8fc20010 	lw	$2,16($30)
800018cc:	8fc30028 	lw	$3,40($30)
800018d0:	0043102b 	sltu	$2,$2,$3
800018d4:	1040002c 	beqz	$2,80001988 <SendEthernetFrame+0x248>
800018d8:	00000000 	sll	$0,$0,0x0
800018dc:	8fc20010 	lw	$2,16($30)
800018e0:	24420004 	addiu	$2,$2,4
800018e4:	8fc30024 	lw	$3,36($30)
800018e8:	00621021 	addu	$2,$3,$2
800018ec:	90420000 	lbu	$2,0($2)
800018f0:	00021102 	srl	$2,$2,0x4
800018f4:	304200ff 	andi	$2,$2,0xff
800018f8:	00402025 	or	$4,$2,$0
800018fc:	0c00046d 	jal	800011b4 <_Z7hextochi>
80001900:	00000000 	sll	$0,$0,0x0
80001904:	00402025 	or	$4,$2,$0
80001908:	0c000188 	jal	80000620 <putc>
8000190c:	00000000 	sll	$0,$0,0x0
80001910:	8fc20010 	lw	$2,16($30)
80001914:	24420004 	addiu	$2,$2,4
80001918:	8fc30024 	lw	$3,36($30)
8000191c:	00621021 	addu	$2,$3,$2
80001920:	90420000 	lbu	$2,0($2)
80001924:	3042000f 	andi	$2,$2,0xf
80001928:	00402025 	or	$4,$2,$0
8000192c:	0c00046d 	jal	800011b4 <_Z7hextochi>
80001930:	00000000 	sll	$0,$0,0x0
80001934:	00402025 	or	$4,$2,$0
80001938:	0c000188 	jal	80000620 <putc>
8000193c:	00000000 	sll	$0,$0,0x0
80001940:	8fc20010 	lw	$2,16($30)
80001944:	3043000f 	andi	$3,$2,0xf
80001948:	2402000f 	addiu	$2,$0,15
8000194c:	14620006 	bne	$3,$2,80001968 <SendEthernetFrame+0x228>
80001950:	00000000 	sll	$0,$0,0x0
80001954:	2404000a 	addiu	$4,$0,10
80001958:	0c000188 	jal	80000620 <putc>
8000195c:	00000000 	sll	$0,$0,0x0
80001960:	10000004 	beqz	$0,80001974 <SendEthernetFrame+0x234>
80001964:	00000000 	sll	$0,$0,0x0
80001968:	24040020 	addiu	$4,$0,32
8000196c:	0c000188 	jal	80000620 <putc>
80001970:	00000000 	sll	$0,$0,0x0
80001974:	8fc20010 	lw	$2,16($30)
80001978:	24420001 	addiu	$2,$2,1
8000197c:	afc20010 	sw	$2,16($30)
80001980:	1000ffd1 	beqz	$0,800018c8 <SendEthernetFrame+0x188>
80001984:	00000000 	sll	$0,$0,0x0
80001988:	2404000a 	addiu	$4,$0,10
8000198c:	0c000188 	jal	80000620 <putc>
80001990:	00000000 	sll	$0,$0,0x0
80001994:	00000000 	sll	$0,$0,0x0
80001998:	03c0e825 	or	$29,$30,$0
8000199c:	8fbf001c 	lw	$31,28($29)
800019a0:	8fbe0018 	lw	$30,24($29)
800019a4:	27bd0020 	addiu	$29,$29,32
800019a8:	03e00008 	jr	$31
800019ac:	00000000 	sll	$0,$0,0x0

800019b0 <_ZZ11disassemblePKhjP9RipPacketENKUlvE_clEv>:
800019b0:	27bdffe0 	addiu	$29,$29,-32
800019b4:	afbf001c 	sw	$31,28($29)
800019b8:	afbe0018 	sw	$30,24($29)
800019bc:	03a0f025 	or	$30,$29,$0
800019c0:	afc40020 	sw	$4,32($30)
800019c4:	8fc20020 	lw	$2,32($30)
800019c8:	8c420004 	lw	$2,4($2)
800019cc:	00402025 	or	$4,$2,$0
800019d0:	0c000361 	jal	80000d84 <_Z5htonlj>
800019d4:	00000000 	sll	$0,$0,0x0
800019d8:	2c420001 	sltiu	$2,$2,1
800019dc:	304200ff 	andi	$2,$2,0xff
800019e0:	10400004 	beqz	$2,800019f4 <_ZZ11disassemblePKhjP9RipPacketENKUlvE_clEv+0x44>
800019e4:	00000000 	sll	$0,$0,0x0
800019e8:	24020001 	addiu	$2,$0,1
800019ec:	1000001e 	beqz	$0,80001a68 <_ZZ11disassemblePKhjP9RipPacketENKUlvE_clEv+0xb8>
800019f0:	00000000 	sll	$0,$0,0x0
800019f4:	afc00010 	sw	$0,16($30)
800019f8:	8fc20010 	lw	$2,16($30)
800019fc:	28420020 	slti	$2,$2,32
80001a00:	10400018 	beqz	$2,80001a64 <_ZZ11disassemblePKhjP9RipPacketENKUlvE_clEv+0xb4>
80001a04:	00000000 	sll	$0,$0,0x0
80001a08:	8fc20020 	lw	$2,32($30)
80001a0c:	8c420004 	lw	$2,4($2)
80001a10:	00402025 	or	$4,$2,$0
80001a14:	0c000361 	jal	80000d84 <_Z5htonlj>
80001a18:	00000000 	sll	$0,$0,0x0
80001a1c:	00402025 	or	$4,$2,$0
80001a20:	24030001 	addiu	$3,$0,1
80001a24:	8fc20010 	lw	$2,16($30)
80001a28:	00431004 	sllv	$2,$3,$2
80001a2c:	00021023 	negu	$2,$2
80001a30:	00821026 	xor	$2,$4,$2
80001a34:	2c420001 	sltiu	$2,$2,1
80001a38:	304200ff 	andi	$2,$2,0xff
80001a3c:	10400004 	beqz	$2,80001a50 <_ZZ11disassemblePKhjP9RipPacketENKUlvE_clEv+0xa0>
80001a40:	00000000 	sll	$0,$0,0x0
80001a44:	24020001 	addiu	$2,$0,1
80001a48:	10000007 	beqz	$0,80001a68 <_ZZ11disassemblePKhjP9RipPacketENKUlvE_clEv+0xb8>
80001a4c:	00000000 	sll	$0,$0,0x0
80001a50:	8fc20010 	lw	$2,16($30)
80001a54:	24420001 	addiu	$2,$2,1
80001a58:	afc20010 	sw	$2,16($30)
80001a5c:	1000ffe6 	beqz	$0,800019f8 <_ZZ11disassemblePKhjP9RipPacketENKUlvE_clEv+0x48>
80001a60:	00000000 	sll	$0,$0,0x0
80001a64:	00001025 	or	$2,$0,$0
80001a68:	03c0e825 	or	$29,$30,$0
80001a6c:	8fbf001c 	lw	$31,28($29)
80001a70:	8fbe0018 	lw	$30,24($29)
80001a74:	27bd0020 	addiu	$29,$29,32
80001a78:	03e00008 	jr	$31
80001a7c:	00000000 	sll	$0,$0,0x0

80001a80 <_Z11disassemblePKhjP9RipPacket>:
80001a80:	27bdffb8 	addiu	$29,$29,-72
80001a84:	afbf0044 	sw	$31,68($29)
80001a88:	afbe0040 	sw	$30,64($29)
80001a8c:	03a0f025 	or	$30,$29,$0
80001a90:	afc40048 	sw	$4,72($30)
80001a94:	afc5004c 	sw	$5,76($30)
80001a98:	afc60050 	sw	$6,80($30)
80001a9c:	24050002 	addiu	$5,$0,2
80001aa0:	8fc40048 	lw	$4,72($30)
80001aa4:	0c000259 	jal	80000964 <_Z7getDataPKhm>
80001aa8:	00000000 	sll	$0,$0,0x0
80001aac:	afc20014 	sw	$2,20($30)
80001ab0:	8fc20014 	lw	$2,20($30)
80001ab4:	8fc3004c 	lw	$3,76($30)
80001ab8:	0062102b 	sltu	$2,$3,$2
80001abc:	10400004 	beqz	$2,80001ad0 <_Z11disassemblePKhjP9RipPacket+0x50>
80001ac0:	00000000 	sll	$0,$0,0x0
80001ac4:	00001025 	or	$2,$0,$0
80001ac8:	100000af 	beqz	$0,80001d88 <_Z11disassemblePKhjP9RipPacket+0x308>
80001acc:	00000000 	sll	$0,$0,0x0
80001ad0:	8fc20050 	lw	$2,80($30)
80001ad4:	afc20018 	sw	$2,24($30)
80001ad8:	8fc20048 	lw	$2,72($30)
80001adc:	2442001c 	addiu	$2,$2,28
80001ae0:	90430000 	lbu	$3,0($2)
80001ae4:	8fc20018 	lw	$2,24($30)
80001ae8:	a0430004 	sb	$3,4($2)
80001aec:	8fc20048 	lw	$2,72($30)
80001af0:	2442001d 	addiu	$2,$2,29
80001af4:	90420000 	lbu	$2,0($2)
80001af8:	afc2001c 	sw	$2,28($30)
80001afc:	8fc20048 	lw	$2,72($30)
80001b00:	2442001e 	addiu	$2,$2,30
80001b04:	94420000 	lhu	$2,0($2)
80001b08:	afc20020 	sw	$2,32($30)
80001b0c:	8fc20018 	lw	$2,24($30)
80001b10:	90430004 	lbu	$3,4($2)
80001b14:	24020001 	addiu	$2,$0,1
80001b18:	10620009 	beq	$3,$2,80001b40 <_Z11disassemblePKhjP9RipPacket+0xc0>
80001b1c:	00000000 	sll	$0,$0,0x0
80001b20:	8fc20018 	lw	$2,24($30)
80001b24:	90430004 	lbu	$3,4($2)
80001b28:	24020002 	addiu	$2,$0,2
80001b2c:	10620004 	beq	$3,$2,80001b40 <_Z11disassemblePKhjP9RipPacket+0xc0>
80001b30:	00000000 	sll	$0,$0,0x0
80001b34:	00001025 	or	$2,$0,$0
80001b38:	10000093 	beqz	$0,80001d88 <_Z11disassemblePKhjP9RipPacket+0x308>
80001b3c:	00000000 	sll	$0,$0,0x0
80001b40:	8fc3001c 	lw	$3,28($30)
80001b44:	24020002 	addiu	$2,$0,2
80001b48:	10620004 	beq	$3,$2,80001b5c <_Z11disassemblePKhjP9RipPacket+0xdc>
80001b4c:	00000000 	sll	$0,$0,0x0
80001b50:	00001025 	or	$2,$0,$0
80001b54:	1000008c 	beqz	$0,80001d88 <_Z11disassemblePKhjP9RipPacket+0x308>
80001b58:	00000000 	sll	$0,$0,0x0
80001b5c:	8fc20020 	lw	$2,32($30)
80001b60:	10400004 	beqz	$2,80001b74 <_Z11disassemblePKhjP9RipPacket+0xf4>
80001b64:	00000000 	sll	$0,$0,0x0
80001b68:	00001025 	or	$2,$0,$0
80001b6c:	10000086 	beqz	$0,80001d88 <_Z11disassemblePKhjP9RipPacket+0x308>
80001b70:	00000000 	sll	$0,$0,0x0
80001b74:	8fc20018 	lw	$2,24($30)
80001b78:	ac400000 	sw	$0,0($2)
80001b7c:	24020020 	addiu	$2,$0,32
80001b80:	afc20010 	sw	$2,16($30)
80001b84:	8fc30010 	lw	$3,16($30)
80001b88:	8fc20014 	lw	$2,20($30)
80001b8c:	0062102a 	slt	$2,$3,$2
80001b90:	1040007c 	beqz	$2,80001d84 <_Z11disassemblePKhjP9RipPacket+0x304>
80001b94:	00000000 	sll	$0,$0,0x0
80001b98:	8fc20018 	lw	$2,24($30)
80001b9c:	8c420000 	lw	$2,0($2)
80001ba0:	24440001 	addiu	$4,$2,1
80001ba4:	8fc30018 	lw	$3,24($30)
80001ba8:	ac640000 	sw	$4,0($3)
80001bac:	00021100 	sll	$2,$2,0x4
80001bb0:	24420008 	addiu	$2,$2,8
80001bb4:	8fc30018 	lw	$3,24($30)
80001bb8:	00621021 	addu	$2,$3,$2
80001bbc:	afc20024 	sw	$2,36($30)
80001bc0:	8fc20010 	lw	$2,16($30)
80001bc4:	24420004 	addiu	$2,$2,4
80001bc8:	8fc30048 	lw	$3,72($30)
80001bcc:	00621021 	addu	$2,$3,$2
80001bd0:	8c430000 	lw	$3,0($2)
80001bd4:	8fc20024 	lw	$2,36($30)
80001bd8:	ac430000 	sw	$3,0($2)
80001bdc:	8fc20010 	lw	$2,16($30)
80001be0:	24420008 	addiu	$2,$2,8
80001be4:	8fc30048 	lw	$3,72($30)
80001be8:	00621021 	addu	$2,$3,$2
80001bec:	8c430000 	lw	$3,0($2)
80001bf0:	8fc20024 	lw	$2,36($30)
80001bf4:	ac430004 	sw	$3,4($2)
80001bf8:	8fc20010 	lw	$2,16($30)
80001bfc:	2442000c 	addiu	$2,$2,12
80001c00:	8fc30048 	lw	$3,72($30)
80001c04:	00621021 	addu	$2,$3,$2
80001c08:	8c430000 	lw	$3,0($2)
80001c0c:	8fc20024 	lw	$2,36($30)
80001c10:	ac430008 	sw	$3,8($2)
80001c14:	8fc20010 	lw	$2,16($30)
80001c18:	24420010 	addiu	$2,$2,16
80001c1c:	8fc30048 	lw	$3,72($30)
80001c20:	00621021 	addu	$2,$3,$2
80001c24:	8c430000 	lw	$3,0($2)
80001c28:	8fc20024 	lw	$2,36($30)
80001c2c:	ac43000c 	sw	$3,12($2)
80001c30:	8fc20010 	lw	$2,16($30)
80001c34:	24420001 	addiu	$2,$2,1
80001c38:	8fc30048 	lw	$3,72($30)
80001c3c:	00621021 	addu	$2,$3,$2
80001c40:	90420000 	lbu	$2,0($2)
80001c44:	afc20028 	sw	$2,40($30)
80001c48:	8fc20018 	lw	$2,24($30)
80001c4c:	90430004 	lbu	$3,4($2)
80001c50:	24020001 	addiu	$2,$0,1
80001c54:	14620004 	bne	$3,$2,80001c68 <_Z11disassemblePKhjP9RipPacket+0x1e8>
80001c58:	00000000 	sll	$0,$0,0x0
80001c5c:	8fc20028 	lw	$2,40($30)
80001c60:	1040000d 	beqz	$2,80001c98 <_Z11disassemblePKhjP9RipPacket+0x218>
80001c64:	00000000 	sll	$0,$0,0x0
80001c68:	8fc20018 	lw	$2,24($30)
80001c6c:	90430004 	lbu	$3,4($2)
80001c70:	24020002 	addiu	$2,$0,2
80001c74:	14620005 	bne	$3,$2,80001c8c <_Z11disassemblePKhjP9RipPacket+0x20c>
80001c78:	00000000 	sll	$0,$0,0x0
80001c7c:	8fc30028 	lw	$3,40($30)
80001c80:	24020002 	addiu	$2,$0,2
80001c84:	10620004 	beq	$3,$2,80001c98 <_Z11disassemblePKhjP9RipPacket+0x218>
80001c88:	00000000 	sll	$0,$0,0x0
80001c8c:	00001025 	or	$2,$0,$0
80001c90:	1000003d 	beqz	$0,80001d88 <_Z11disassemblePKhjP9RipPacket+0x308>
80001c94:	00000000 	sll	$0,$0,0x0
80001c98:	8fc20010 	lw	$2,16($30)
80001c9c:	24420002 	addiu	$2,$2,2
80001ca0:	8fc30048 	lw	$3,72($30)
80001ca4:	00621021 	addu	$2,$3,$2
80001ca8:	94420000 	lhu	$2,0($2)
80001cac:	10400004 	beqz	$2,80001cc0 <_Z11disassemblePKhjP9RipPacket+0x240>
80001cb0:	00000000 	sll	$0,$0,0x0
80001cb4:	00001025 	or	$2,$0,$0
80001cb8:	10000033 	beqz	$0,80001d88 <_Z11disassemblePKhjP9RipPacket+0x308>
80001cbc:	00000000 	sll	$0,$0,0x0
80001cc0:	8fc20024 	lw	$2,36($30)
80001cc4:	8c42000c 	lw	$2,12($2)
80001cc8:	00402025 	or	$4,$2,$0
80001ccc:	0c000361 	jal	80000d84 <_Z5htonlj>
80001cd0:	00000000 	sll	$0,$0,0x0
80001cd4:	10400009 	beqz	$2,80001cfc <_Z11disassemblePKhjP9RipPacket+0x27c>
80001cd8:	00000000 	sll	$0,$0,0x0
80001cdc:	8fc20024 	lw	$2,36($30)
80001ce0:	8c42000c 	lw	$2,12($2)
80001ce4:	00402025 	or	$4,$2,$0
80001ce8:	0c000361 	jal	80000d84 <_Z5htonlj>
80001cec:	00000000 	sll	$0,$0,0x0
80001cf0:	2c420011 	sltiu	$2,$2,17
80001cf4:	14400004 	bnez	$2,80001d08 <_Z11disassemblePKhjP9RipPacket+0x288>
80001cf8:	00000000 	sll	$0,$0,0x0
80001cfc:	24020001 	addiu	$2,$0,1
80001d00:	10000002 	beqz	$0,80001d0c <_Z11disassemblePKhjP9RipPacket+0x28c>
80001d04:	00000000 	sll	$0,$0,0x0
80001d08:	00001025 	or	$2,$0,$0
80001d0c:	10400004 	beqz	$2,80001d20 <_Z11disassemblePKhjP9RipPacket+0x2a0>
80001d10:	00000000 	sll	$0,$0,0x0
80001d14:	00001025 	or	$2,$0,$0
80001d18:	1000001b 	beqz	$0,80001d88 <_Z11disassemblePKhjP9RipPacket+0x308>
80001d1c:	00000000 	sll	$0,$0,0x0
80001d20:	8fc20024 	lw	$2,36($30)
80001d24:	8c450000 	lw	$5,0($2)
80001d28:	8c440004 	lw	$4,4($2)
80001d2c:	8c430008 	lw	$3,8($2)
80001d30:	8c42000c 	lw	$2,12($2)
80001d34:	afc5002c 	sw	$5,44($30)
80001d38:	afc40030 	sw	$4,48($30)
80001d3c:	afc30034 	sw	$3,52($30)
80001d40:	afc20038 	sw	$2,56($30)
80001d44:	27c2002c 	addiu	$2,$30,44
80001d48:	00402025 	or	$4,$2,$0
80001d4c:	0c00066c 	jal	800019b0 <_ZZ11disassemblePKhjP9RipPacketENKUlvE_clEv>
80001d50:	00000000 	sll	$0,$0,0x0
80001d54:	38420001 	xori	$2,$2,0x1
80001d58:	304200ff 	andi	$2,$2,0xff
80001d5c:	10400004 	beqz	$2,80001d70 <_Z11disassemblePKhjP9RipPacket+0x2f0>
80001d60:	00000000 	sll	$0,$0,0x0
80001d64:	00001025 	or	$2,$0,$0
80001d68:	10000007 	beqz	$0,80001d88 <_Z11disassemblePKhjP9RipPacket+0x308>
80001d6c:	00000000 	sll	$0,$0,0x0
80001d70:	8fc20010 	lw	$2,16($30)
80001d74:	24420014 	addiu	$2,$2,20
80001d78:	afc20010 	sw	$2,16($30)
80001d7c:	1000ff81 	beqz	$0,80001b84 <_Z11disassemblePKhjP9RipPacket+0x104>
80001d80:	00000000 	sll	$0,$0,0x0
80001d84:	24020001 	addiu	$2,$0,1
80001d88:	03c0e825 	or	$29,$30,$0
80001d8c:	8fbf0044 	lw	$31,68($29)
80001d90:	8fbe0040 	lw	$30,64($29)
80001d94:	27bd0048 	addiu	$29,$29,72
80001d98:	03e00008 	jr	$31
80001d9c:	00000000 	sll	$0,$0,0x0

80001da0 <_Z8assemblePK9RipPacketPh>:
80001da0:	27bdffe0 	addiu	$29,$29,-32
80001da4:	afbe001c 	sw	$30,28($29)
80001da8:	03a0f025 	or	$30,$29,$0
80001dac:	afc40020 	sw	$4,32($30)
80001db0:	afc50024 	sw	$5,36($30)
80001db4:	8fc20020 	lw	$2,32($30)
80001db8:	90430004 	lbu	$3,4($2)
80001dbc:	8fc20024 	lw	$2,36($30)
80001dc0:	a0430000 	sb	$3,0($2)
80001dc4:	8fc20024 	lw	$2,36($30)
80001dc8:	24420001 	addiu	$2,$2,1
80001dcc:	24030002 	addiu	$3,$0,2
80001dd0:	a0430000 	sb	$3,0($2)
80001dd4:	8fc20024 	lw	$2,36($30)
80001dd8:	24420003 	addiu	$2,$2,3
80001ddc:	a0400000 	sb	$0,0($2)
80001de0:	8fc30024 	lw	$3,36($30)
80001de4:	24630002 	addiu	$3,$3,2
80001de8:	90420000 	lbu	$2,0($2)
80001dec:	a0620000 	sb	$2,0($3)
80001df0:	8fc20024 	lw	$2,36($30)
80001df4:	24420004 	addiu	$2,$2,4
80001df8:	afc20024 	sw	$2,36($30)
80001dfc:	afc00000 	sw	$0,0($30)
80001e00:	8fc20020 	lw	$2,32($30)
80001e04:	8c430000 	lw	$3,0($2)
80001e08:	8fc20000 	lw	$2,0($30)
80001e0c:	0043102b 	sltu	$2,$2,$3
80001e10:	10400035 	beqz	$2,80001ee8 <_Z8assemblePK9RipPacketPh+0x148>
80001e14:	00000000 	sll	$0,$0,0x0
80001e18:	8fc30020 	lw	$3,32($30)
80001e1c:	8fc20000 	lw	$2,0($30)
80001e20:	00021100 	sll	$2,$2,0x4
80001e24:	00621021 	addu	$2,$3,$2
80001e28:	8c450008 	lw	$5,8($2)
80001e2c:	8c44000c 	lw	$4,12($2)
80001e30:	8c430010 	lw	$3,16($2)
80001e34:	8c420014 	lw	$2,20($2)
80001e38:	afc50004 	sw	$5,4($30)
80001e3c:	afc40008 	sw	$4,8($30)
80001e40:	afc3000c 	sw	$3,12($30)
80001e44:	afc20010 	sw	$2,16($30)
80001e48:	8fc20024 	lw	$2,36($30)
80001e4c:	a0400000 	sb	$0,0($2)
80001e50:	8fc20020 	lw	$2,32($30)
80001e54:	90430004 	lbu	$3,4($2)
80001e58:	24020001 	addiu	$2,$0,1
80001e5c:	14620004 	bne	$3,$2,80001e70 <_Z8assemblePK9RipPacketPh+0xd0>
80001e60:	00000000 	sll	$0,$0,0x0
80001e64:	00001025 	or	$2,$0,$0
80001e68:	10000002 	beqz	$0,80001e74 <_Z8assemblePK9RipPacketPh+0xd4>
80001e6c:	00000000 	sll	$0,$0,0x0
80001e70:	24020002 	addiu	$2,$0,2
80001e74:	8fc30024 	lw	$3,36($30)
80001e78:	24630001 	addiu	$3,$3,1
80001e7c:	a0620000 	sb	$2,0($3)
80001e80:	8fc20024 	lw	$2,36($30)
80001e84:	24420002 	addiu	$2,$2,2
80001e88:	a4400000 	sh	$0,0($2)
80001e8c:	8fc20024 	lw	$2,36($30)
80001e90:	24420004 	addiu	$2,$2,4
80001e94:	8fc30004 	lw	$3,4($30)
80001e98:	ac430000 	sw	$3,0($2)
80001e9c:	8fc20024 	lw	$2,36($30)
80001ea0:	24420008 	addiu	$2,$2,8
80001ea4:	8fc30008 	lw	$3,8($30)
80001ea8:	ac430000 	sw	$3,0($2)
80001eac:	8fc20024 	lw	$2,36($30)
80001eb0:	2442000c 	addiu	$2,$2,12
80001eb4:	ac400000 	sw	$0,0($2)
80001eb8:	8fc20024 	lw	$2,36($30)
80001ebc:	24420010 	addiu	$2,$2,16
80001ec0:	8fc30010 	lw	$3,16($30)
80001ec4:	ac430000 	sw	$3,0($2)
80001ec8:	8fc20000 	lw	$2,0($30)
80001ecc:	24420001 	addiu	$2,$2,1
80001ed0:	afc20000 	sw	$2,0($30)
80001ed4:	8fc20024 	lw	$2,36($30)
80001ed8:	24420014 	addiu	$2,$2,20
80001edc:	afc20024 	sw	$2,36($30)
80001ee0:	1000ffc7 	beqz	$0,80001e00 <_Z8assemblePK9RipPacketPh+0x60>
80001ee4:	00000000 	sll	$0,$0,0x0
80001ee8:	8fc20020 	lw	$2,32($30)
80001eec:	8c430000 	lw	$3,0($2)
80001ef0:	00601025 	or	$2,$3,$0
80001ef4:	00021080 	sll	$2,$2,0x2
80001ef8:	00431021 	addu	$2,$2,$3
80001efc:	00021080 	sll	$2,$2,0x2
80001f00:	24420004 	addiu	$2,$2,4
80001f04:	03c0e825 	or	$29,$30,$0
80001f08:	8fbe001c 	lw	$30,28($29)
80001f0c:	27bd0020 	addiu	$29,$29,32
80001f10:	03e00008 	jr	$31
80001f14:	00000000 	sll	$0,$0,0x0

80001f18 <_ZN8RipEntryC1Ejjjj>:
80001f18:	27bdfff8 	addiu	$29,$29,-8
80001f1c:	afbe0004 	sw	$30,4($29)
80001f20:	03a0f025 	or	$30,$29,$0
80001f24:	afc40008 	sw	$4,8($30)
80001f28:	afc5000c 	sw	$5,12($30)
80001f2c:	afc60010 	sw	$6,16($30)
80001f30:	afc70014 	sw	$7,20($30)
80001f34:	8fc20008 	lw	$2,8($30)
80001f38:	8fc3000c 	lw	$3,12($30)
80001f3c:	ac430000 	sw	$3,0($2)
80001f40:	8fc20008 	lw	$2,8($30)
80001f44:	8fc30010 	lw	$3,16($30)
80001f48:	ac430004 	sw	$3,4($2)
80001f4c:	8fc20008 	lw	$2,8($30)
80001f50:	8fc30014 	lw	$3,20($30)
80001f54:	ac430008 	sw	$3,8($2)
80001f58:	8fc20008 	lw	$2,8($30)
80001f5c:	8fc30018 	lw	$3,24($30)
80001f60:	ac43000c 	sw	$3,12($2)
80001f64:	00000000 	sll	$0,$0,0x0
80001f68:	03c0e825 	or	$29,$30,$0
80001f6c:	8fbe0004 	lw	$30,4($29)
80001f70:	27bd0008 	addiu	$29,$29,8
80001f74:	03e00008 	jr	$31
80001f78:	00000000 	sll	$0,$0,0x0

80001f7c <_ZN9RipPacketC1Ev>:
80001f7c:	27bdffd8 	addiu	$29,$29,-40
80001f80:	afbf0024 	sw	$31,36($29)
80001f84:	afbe0020 	sw	$30,32($29)
80001f88:	afb1001c 	sw	$17,28($29)
80001f8c:	afb00018 	sw	$16,24($29)
80001f90:	03a0f025 	or	$30,$29,$0
80001f94:	afc40028 	sw	$4,40($30)
80001f98:	8fc20028 	lw	$2,40($30)
80001f9c:	ac400000 	sw	$0,0($2)
80001fa0:	8fc20028 	lw	$2,40($30)
80001fa4:	a0400004 	sb	$0,4($2)
80001fa8:	8fc20028 	lw	$2,40($30)
80001fac:	24420008 	addiu	$2,$2,8
80001fb0:	24100018 	addiu	$16,$0,24
80001fb4:	00408825 	or	$17,$2,$0
80001fb8:	0600000d 	bltz	$16,80001ff0 <_ZN9RipPacketC1Ev+0x74>
80001fbc:	00000000 	sll	$0,$0,0x0
80001fc0:	24020010 	addiu	$2,$0,16
80001fc4:	afa20010 	sw	$2,16($29)
80001fc8:	00003825 	or	$7,$0,$0
80001fcc:	00003025 	or	$6,$0,$0
80001fd0:	00002825 	or	$5,$0,$0
80001fd4:	02202025 	or	$4,$17,$0
80001fd8:	0c0007c6 	jal	80001f18 <_ZN8RipEntryC1Ejjjj>
80001fdc:	00000000 	sll	$0,$0,0x0
80001fe0:	26310010 	addiu	$17,$17,16
80001fe4:	2610ffff 	addiu	$16,$16,-1
80001fe8:	1000fff3 	beqz	$0,80001fb8 <_ZN9RipPacketC1Ev+0x3c>
80001fec:	00000000 	sll	$0,$0,0x0
80001ff0:	8fc20028 	lw	$2,40($30)
80001ff4:	24420008 	addiu	$2,$2,8
80001ff8:	24060190 	addiu	$6,$0,400
80001ffc:	00002825 	or	$5,$0,$0
80002000:	00402025 	or	$4,$2,$0
80002004:	0c00041c 	jal	80001070 <_Z6memsetPvcm>
80002008:	00000000 	sll	$0,$0,0x0
8000200c:	00000000 	sll	$0,$0,0x0
80002010:	03c0e825 	or	$29,$30,$0
80002014:	8fbf0024 	lw	$31,36($29)
80002018:	8fbe0020 	lw	$30,32($29)
8000201c:	8fb1001c 	lw	$17,28($29)
80002020:	8fb00018 	lw	$16,24($29)
80002024:	27bd0028 	addiu	$29,$29,40
80002028:	03e00008 	jr	$31
8000202c:	00000000 	sll	$0,$0,0x0

80002030 <_Z19InsertHardwareTablejjhh>:
80002030:	27bdfff0 	addiu	$29,$29,-16
80002034:	afbe000c 	sw	$30,12($29)
80002038:	03a0f025 	or	$30,$29,$0
8000203c:	afc40010 	sw	$4,16($30)
80002040:	afc50014 	sw	$5,20($30)
80002044:	00c01025 	or	$2,$6,$0
80002048:	00e01825 	or	$3,$7,$0
8000204c:	a3c20018 	sb	$2,24($30)
80002050:	00601025 	or	$2,$3,$0
80002054:	a3c2001c 	sb	$2,28($30)
80002058:	3c02bfd0 	lui	$2,0xbfd0
8000205c:	34420410 	ori	$2,$2,0x410
80002060:	8fc30010 	lw	$3,16($30)
80002064:	ac430000 	sw	$3,0($2)
80002068:	3c02bfd0 	lui	$2,0xbfd0
8000206c:	34420414 	ori	$2,$2,0x414
80002070:	8fc30014 	lw	$3,20($30)
80002074:	ac430000 	sw	$3,0($2)
80002078:	3c02bfd0 	lui	$2,0xbfd0
8000207c:	34420418 	ori	$2,$2,0x418
80002080:	93c30018 	lbu	$3,24($30)
80002084:	ac430000 	sw	$3,0($2)
80002088:	3c02bfd0 	lui	$2,0xbfd0
8000208c:	3442041c 	ori	$2,$2,0x41c
80002090:	93c3001c 	lbu	$3,28($30)
80002094:	ac430000 	sw	$3,0($2)
80002098:	3c02bfd0 	lui	$2,0xbfd0
8000209c:	34420420 	ori	$2,$2,0x420
800020a0:	afc20000 	sw	$2,0($30)
800020a4:	8fc20000 	lw	$2,0($30)
800020a8:	8c420000 	lw	$2,0($2)
800020ac:	30420001 	andi	$2,$2,0x1
800020b0:	0002102b 	sltu	$2,$0,$2
800020b4:	304200ff 	andi	$2,$2,0xff
800020b8:	10400003 	beqz	$2,800020c8 <_Z19InsertHardwareTablejjhh+0x98>
800020bc:	00000000 	sll	$0,$0,0x0
800020c0:	1000fff8 	beqz	$0,800020a4 <_Z19InsertHardwareTablejjhh+0x74>
800020c4:	00000000 	sll	$0,$0,0x0
800020c8:	8fc20000 	lw	$2,0($30)
800020cc:	24030001 	addiu	$3,$0,1
800020d0:	ac430000 	sw	$3,0($2)
800020d4:	00000000 	sll	$0,$0,0x0
800020d8:	03c0e825 	or	$29,$30,$0
800020dc:	8fbe000c 	lw	$30,12($29)
800020e0:	27bd0010 	addiu	$29,$29,16
800020e4:	03e00008 	jr	$31
800020e8:	00000000 	sll	$0,$0,0x0

800020ec <_Z19isHardwareTableFullv>:
800020ec:	27bdfff8 	addiu	$29,$29,-8
800020f0:	afbe0004 	sw	$30,4($29)
800020f4:	03a0f025 	or	$30,$29,$0
800020f8:	3c02bfd0 	lui	$2,0xbfd0
800020fc:	34420420 	ori	$2,$2,0x420
80002100:	8c420000 	lw	$2,0($2)
80002104:	30420002 	andi	$2,$2,0x2
80002108:	0002102b 	sltu	$2,$0,$2
8000210c:	304200ff 	andi	$2,$2,0xff
80002110:	03c0e825 	or	$29,$30,$0
80002114:	8fbe0004 	lw	$30,4($29)
80002118:	27bd0008 	addiu	$29,$29,8
8000211c:	03e00008 	jr	$31
80002120:	00000000 	sll	$0,$0,0x0
	...

Disassembly of section .rodata:

80002130 <_ZL19BUFFER_TAIL_ADDRESS>:
80002130:	bfd00400 	cache	0x10,1024($30)

80002134 <_ZL20SEND_CONTROL_ADDRESS>:
80002134:	bfd00408 	cache	0x10,1032($30)

80002138 <_ZL18SEND_STATE_ADDRESS>:
80002138:	bfd00404 	cache	0x10,1028($30)

8000213c <_ZL19BUFFER_BASE_ADDRESS>:
8000213c:	80600000 	lb	$0,0($3)

80002140 <_ZL17ROUTER_TABLE_BASE>:
80002140:	bfd00410 	cache	0x10,1040($30)

80002144 <_ZL9TIMER_POS>:
80002144:	bfd00440 	cache	0x10,1088($30)

80002148 <_ZL11BUFFER_SIZE>:
80002148:	00000080 	sll	$0,$0,0x2

8000214c <_ZL17ROUTER_TABLE_BASE>:
8000214c:	bfd00410 	cache	0x10,1040($30)

80002150 <_ZL18ROUTER_LOOKUP_CTRL>:
80002150:	bfd00420 	cache	0x10,1056($30)
	...
80002160:	00005442 	srl	$10,$0,0x11
	...
80002170:	6365725b 	0x6365725b
80002174:	00005d76 	tne	$0,$0,0x175
80002178:	72617453 	0x72617453
8000217c:	6f742074 	0x6f742074
80002180:	6e657320 	0x6e657320
80002184:	6e612064 	0x6e612064
80002188:	746e4520 	jalx	81b91480 <_bss_end+0x1b8ec50>
8000218c:	656e7265 	0x656e7265
80002190:	72462074 	0x72462074
80002194:	20656d61 	addi	$5,$3,28001
80002198:	6c20666f 	0x6c20666f
8000219c:	74676e65 	jalx	819db994 <_bss_end+0x19d9164>
800021a0:	00002068 	0x2068
800021a4:	00000028 	0x28
800021a8:	00000a29 	0xa29
800021ac:	6e65735b 	0x6e65735b
800021b0:	00005d64 	0x5d64
	...

Disassembly of section .reginfo:

800021c0 <.reginfo>:
800021c0:	e00100fc 	sc	$1,252($0)
	...

Disassembly of section .MIPS.abiflags:

800021d8 <.MIPS.abiflags>:
800021d8:	01200000 	0x1200000
800021dc:	02000101 	0x2000101
	...
800021e8:	00000001 	movf	$0,$0,$fcc0
800021ec:	00000000 	sll	$0,$0,0x0

Disassembly of section .eh_frame:

800021f0 <.eh_frame>:
800021f0:	00000010 	mfhi	$0
800021f4:	00000000 	sll	$0,$0,0x0
800021f8:	00527a01 	0x527a01
800021fc:	011f7c01 	0x11f7c01
80002200:	001d0d0b 	0x1d0d0b
80002204:	00000020 	add	$0,$0,$0
80002208:	00000018 	mult	$0,$0
8000220c:	80000398 	lb	$0,920($0)
80002210:	00000070 	tge	$0,$0,0x1
80002214:	080e4400 	j	80391000 <_bss_end+0x38e7d0>
80002218:	44019e44 	0x44019e44
8000221c:	54021e0d 	bnel	$0,$2,80009a54 <_bss_end+0x7224>
80002220:	de481d0d 	ldc3	$8,7437($18)
80002224:	0000000e 	0xe
80002228:	0000001c 	0x1c
8000222c:	0000003c 	0x3c
80002230:	80000408 	lb	$0,1032($0)
80002234:	00000218 	0x218
80002238:	680e4400 	0x680e4400
8000223c:	9e019f4c 	0x9e019f4c
80002240:	44039002 	0x44039002
80002244:	00001e0d 	break	0x0,0x78
80002248:	00000020 	add	$0,$0,$0
8000224c:	0000005c 	0x5c
80002250:	80000620 	lb	$0,1568($0)
80002254:	00000064 	0x64
80002258:	080e4400 	j	80391000 <_bss_end+0x38e7d0>
8000225c:	44019e44 	0x44019e44
80002260:	48021e0d 	0x48021e0d
80002264:	de481d0d 	ldc3	$8,7437($18)
80002268:	0000000e 	0xe
8000226c:	00000020 	add	$0,$0,$0
80002270:	00000080 	sll	$0,$0,0x2
80002274:	80000684 	lb	$0,1668($0)
80002278:	00000058 	0x58
8000227c:	080e4400 	j	80391000 <_bss_end+0x38e7d0>
80002280:	44019e44 	0x44019e44
80002284:	0d7c1e0d 	jal	85f07834 <_bss_end+0x5f05004>
80002288:	0ede481d 	jal	8b792074 <_bss_end+0xb78f844>
8000228c:	00000000 	sll	$0,$0,0x0
80002290:	00000024 	and	$0,$0,$0
80002294:	000000a4 	0xa4
80002298:	800006dc 	lb	$0,1756($0)
8000229c:	000000b4 	teq	$0,$0,0x2
800022a0:	200e4400 	addi	$14,$0,17408
800022a4:	9e019f48 	0x9e019f48
800022a8:	1e0d4402 	0x1e0d4402
800022ac:	1d0d9002 	0x1d0d9002
800022b0:	0edfde4c 	jal	8b7f7930 <_bss_end+0xb7f5100>
800022b4:	00000000 	sll	$0,$0,0x0
800022b8:	00000024 	and	$0,$0,$0
800022bc:	000000cc 	syscall	0x3
800022c0:	80000790 	lb	$0,1936($0)
800022c4:	00000088 	0x88
800022c8:	200e4400 	addi	$14,$0,17408
800022cc:	9e019f48 	0x9e019f48
800022d0:	1e0d4402 	0x1e0d4402
800022d4:	1d0d6402 	0x1d0d6402
800022d8:	0edfde4c 	jal	8b7f7930 <_bss_end+0xb7f5100>
800022dc:	00000000 	sll	$0,$0,0x0
800022e0:	00000024 	and	$0,$0,$0
800022e4:	000000f4 	teq	$0,$0,0x3
800022e8:	80000818 	lb	$0,2072($0)
800022ec:	000000d0 	0xd0
800022f0:	200e4400 	addi	$14,$0,17408
800022f4:	9e019f48 	0x9e019f48
800022f8:	1e0d4402 	0x1e0d4402
800022fc:	1d0dac02 	0x1d0dac02
80002300:	0edfde4c 	jal	8b7f7930 <_bss_end+0xb7f5100>
80002304:	00000000 	sll	$0,$0,0x0
80002308:	00000020 	add	$0,$0,$0
8000230c:	0000011c 	0x11c
80002310:	800008e8 	lb	$0,2280($0)
80002314:	00000040 	sll	$0,$0,0x1
80002318:	180e4400 	0x180e4400
8000231c:	9e019f48 	0x9e019f48
80002320:	1e0d4402 	0x1e0d4402
80002324:	4c1d0d5c 	0x4c1d0d5c
80002328:	000edfde 	0xedfde
8000232c:	00000020 	add	$0,$0,$0
80002330:	00000140 	sll	$0,$0,0x5
80002334:	80000928 	lb	$0,2344($0)
80002338:	0000003c 	0x3c
8000233c:	180e4400 	0x180e4400
80002340:	9e019f48 	0x9e019f48
80002344:	1e0d4402 	0x1e0d4402
80002348:	4c1d0d58 	0x4c1d0d58
8000234c:	000edfde 	0xedfde
80002350:	00000020 	add	$0,$0,$0
80002354:	00000164 	0x164
80002358:	80000964 	lb	$0,2404($0)
8000235c:	00000054 	0x54
80002360:	080e4400 	j	80391000 <_bss_end+0x38e7d0>
80002364:	44019e44 	0x44019e44
80002368:	0d781e0d 	jal	85e07834 <_bss_end+0x5e05004>
8000236c:	0ede481d 	jal	8b792074 <_bss_end+0xb78f844>
80002370:	00000000 	sll	$0,$0,0x0
80002374:	00000020 	add	$0,$0,$0
80002378:	00000188 	0x188
8000237c:	800009b8 	lb	$0,2488($0)
80002380:	00000068 	0x68
80002384:	080e4400 	j	80391000 <_bss_end+0x38e7d0>
80002388:	44019e44 	0x44019e44
8000238c:	4c021e0d 	0x4c021e0d
80002390:	de481d0d 	ldc3	$8,7437($18)
80002394:	0000000e 	0xe
80002398:	00000020 	add	$0,$0,$0
8000239c:	000001ac 	0x1ac
800023a0:	80000a20 	lb	$0,2592($0)
800023a4:	000000f8 	0xf8
800023a8:	080e4400 	j	80391000 <_bss_end+0x38e7d0>
800023ac:	44019e44 	0x44019e44
800023b0:	dc021e0d 	ldc3	$2,7693($0)
800023b4:	de481d0d 	ldc3	$8,7437($18)
800023b8:	0000000e 	0xe
800023bc:	00000024 	and	$0,$0,$0
800023c0:	000001d0 	0x1d0
800023c4:	80000b18 	lb	$0,2840($0)
800023c8:	0000008c 	syscall	0x2
800023cc:	180e4400 	0x180e4400
800023d0:	9e019f48 	0x9e019f48
800023d4:	1e0d4402 	0x1e0d4402
800023d8:	1d0d6802 	0x1d0d6802
800023dc:	0edfde4c 	jal	8b7f7930 <_bss_end+0xb7f5100>
800023e0:	00000000 	sll	$0,$0,0x0
800023e4:	00000024 	and	$0,$0,$0
800023e8:	000001f8 	0x1f8
800023ec:	80000ba4 	lb	$0,2980($0)
800023f0:	00000090 	0x90
800023f4:	200e4400 	addi	$14,$0,17408
800023f8:	9e019f48 	0x9e019f48
800023fc:	1e0d4402 	0x1e0d4402
80002400:	1d0d6c02 	0x1d0d6c02
80002404:	0edfde4c 	jal	8b7f7930 <_bss_end+0xb7f5100>
80002408:	00000000 	sll	$0,$0,0x0
8000240c:	00000024 	and	$0,$0,$0
80002410:	00000220 	0x220
80002414:	80000c34 	lb	$0,3124($0)
80002418:	0000006c 	0x6c
8000241c:	180e4400 	0x180e4400
80002420:	9e019f48 	0x9e019f48
80002424:	1e0d4402 	0x1e0d4402
80002428:	1d0d4802 	0x1d0d4802
8000242c:	0edfde4c 	jal	8b7f7930 <_bss_end+0xb7f5100>
80002430:	00000000 	sll	$0,$0,0x0
80002434:	00000024 	and	$0,$0,$0
80002438:	00000248 	0x248
8000243c:	80000ca0 	lb	$0,3232($0)
80002440:	000000e4 	0xe4
80002444:	280e4400 	slti	$14,$0,17408
80002448:	9e019f48 	0x9e019f48
8000244c:	1e0d4402 	0x1e0d4402
80002450:	1d0dc002 	0x1d0dc002
80002454:	0edfde4c 	jal	8b7f7930 <_bss_end+0xb7f5100>
80002458:	00000000 	sll	$0,$0,0x0
8000245c:	00000020 	add	$0,$0,$0
80002460:	00000270 	tge	$0,$0,0x9
80002464:	80000d84 	lb	$0,3460($0)
80002468:	0000005c 	0x5c
8000246c:	080e4400 	j	80391000 <_bss_end+0x38e7d0>
80002470:	44019e44 	0x44019e44
80002474:	40021e0d 	0x40021e0d
80002478:	de481d0d 	ldc3	$8,7437($18)
8000247c:	0000000e 	0xe
80002480:	00000020 	add	$0,$0,$0
80002484:	00000294 	0x294
80002488:	80000de0 	lb	$0,3552($0)
8000248c:	0000005c 	0x5c
80002490:	080e4400 	j	80391000 <_bss_end+0x38e7d0>
80002494:	44019e44 	0x44019e44
80002498:	40021e0d 	0x40021e0d
8000249c:	de481d0d 	ldc3	$8,7437($18)
800024a0:	0000000e 	0xe
800024a4:	00000020 	add	$0,$0,$0
800024a8:	000002b8 	0x2b8
800024ac:	80000e3c 	lb	$0,3644($0)
800024b0:	0000005c 	0x5c
800024b4:	080e4400 	j	80391000 <_bss_end+0x38e7d0>
800024b8:	44019e44 	0x44019e44
800024bc:	40021e0d 	0x40021e0d
800024c0:	de481d0d 	ldc3	$8,7437($18)
800024c4:	0000000e 	0xe
800024c8:	00000020 	add	$0,$0,$0
800024cc:	000002dc 	0x2dc
800024d0:	80000e98 	lb	$0,3736($0)
800024d4:	0000005c 	0x5c
800024d8:	080e4400 	j	80391000 <_bss_end+0x38e7d0>
800024dc:	44019e44 	0x44019e44
800024e0:	40021e0d 	0x40021e0d
800024e4:	de481d0d 	ldc3	$8,7437($18)
800024e8:	0000000e 	0xe
800024ec:	00000020 	add	$0,$0,$0
800024f0:	00000300 	sll	$0,$0,0xc
800024f4:	80000ef4 	lb	$0,3828($0)
800024f8:	0000002c 	0x2c
800024fc:	080e4400 	j	80391000 <_bss_end+0x38e7d0>
80002500:	44019e44 	0x44019e44
80002504:	0d501e0d 	jal	85407834 <_bss_end+0x5405004>
80002508:	0ede481d 	jal	8b792074 <_bss_end+0xb78f844>
8000250c:	00000000 	sll	$0,$0,0x0
80002510:	00000024 	and	$0,$0,$0
80002514:	00000324 	0x324
80002518:	80000f20 	lb	$0,3872($0)
8000251c:	00000064 	0x64
80002520:	180e4400 	0x180e4400
80002524:	9e019f48 	0x9e019f48
80002528:	1e0d4402 	0x1e0d4402
8000252c:	1d0d4002 	0x1d0d4002
80002530:	0edfde4c 	jal	8b7f7930 <_bss_end+0xb7f5100>
80002534:	00000000 	sll	$0,$0,0x0
80002538:	00000024 	and	$0,$0,$0
8000253c:	0000034c 	syscall	0xd
80002540:	80000f84 	lb	$0,3972($0)
80002544:	00000090 	0x90
80002548:	200e4400 	addi	$14,$0,17408
8000254c:	9e019f48 	0x9e019f48
80002550:	1e0d4402 	0x1e0d4402
80002554:	1d0d6c02 	0x1d0d6c02
80002558:	0edfde4c 	jal	8b7f7930 <_bss_end+0xb7f5100>
8000255c:	00000000 	sll	$0,$0,0x0
80002560:	00000020 	add	$0,$0,$0
80002564:	00000374 	teq	$0,$0,0xd
80002568:	80001014 	lb	$0,4116($0)
8000256c:	0000005c 	0x5c
80002570:	180e4400 	0x180e4400
80002574:	9e019f48 	0x9e019f48
80002578:	1e0d4402 	0x1e0d4402
8000257c:	4c1d0d78 	0x4c1d0d78
80002580:	000edfde 	0xedfde
80002584:	00000020 	add	$0,$0,$0
80002588:	00000398 	0x398
8000258c:	80001070 	lb	$0,4208($0)
80002590:	00000074 	teq	$0,$0,0x1
80002594:	100e4400 	beq	$0,$14,80013598 <_bss_end+0x10d68>
80002598:	44019e44 	0x44019e44
8000259c:	58021e0d 	0x58021e0d
800025a0:	de481d0d 	ldc3	$8,7437($18)
800025a4:	0000000e 	0xe
800025a8:	00000020 	add	$0,$0,$0
800025ac:	000003bc 	0x3bc
800025b0:	800010e4 	lb	$0,4324($0)
800025b4:	00000084 	0x84
800025b8:	100e4400 	beq	$0,$14,800135bc <_bss_end+0x10d8c>
800025bc:	44019e44 	0x44019e44
800025c0:	68021e0d 	0x68021e0d
800025c4:	de481d0d 	ldc3	$8,7437($18)
800025c8:	0000000e 	0xe
800025cc:	00000020 	add	$0,$0,$0
800025d0:	000003e0 	0x3e0
800025d4:	80001168 	lb	$0,4456($0)
800025d8:	0000004c 	syscall	0x1
800025dc:	080e4400 	j	80391000 <_bss_end+0x38e7d0>
800025e0:	44019e44 	0x44019e44
800025e4:	0d701e0d 	jal	85c07834 <_bss_end+0x5c05004>
800025e8:	0ede481d 	jal	8b792074 <_bss_end+0xb78f844>
800025ec:	00000000 	sll	$0,$0,0x0
800025f0:	00000020 	add	$0,$0,$0
800025f4:	00000404 	0x404
800025f8:	800011b4 	lb	$0,4532($0)
800025fc:	0000006c 	0x6c
80002600:	080e4400 	j	80391000 <_bss_end+0x38e7d0>
80002604:	44019e44 	0x44019e44
80002608:	50021e0d 	beql	$0,$2,80009e40 <_bss_end+0x7610>
8000260c:	de481d0d 	ldc3	$8,7437($18)
80002610:	0000000e 	0xe
80002614:	00000020 	add	$0,$0,$0
80002618:	00000428 	0x428
8000261c:	80001220 	lb	$0,4640($0)
80002620:	0000006c 	0x6c
80002624:	080e4400 	j	80391000 <_bss_end+0x38e7d0>
80002628:	44019e44 	0x44019e44
8000262c:	50021e0d 	beql	$0,$2,80009e64 <_bss_end+0x7634>
80002630:	de481d0d 	ldc3	$8,7437($18)
80002634:	0000000e 	0xe
80002638:	00000020 	add	$0,$0,$0
8000263c:	0000044c 	syscall	0x11
80002640:	8000128c 	lb	$0,4748($0)
80002644:	000000c4 	0xc4
80002648:	080e4400 	j	80391000 <_bss_end+0x38e7d0>
8000264c:	44019e44 	0x44019e44
80002650:	a8021e0d 	swl	$2,7693($0)
80002654:	de481d0d 	ldc3	$8,7437($18)
80002658:	0000000e 	0xe
8000265c:	00000020 	add	$0,$0,$0
80002660:	00000470 	tge	$0,$0,0x11
80002664:	80001350 	lb	$0,4944($0)
80002668:	000000a0 	0xa0
8000266c:	100e4400 	beq	$0,$14,80013670 <_bss_end+0x10e40>
80002670:	44019e44 	0x44019e44
80002674:	84021e0d 	lh	$2,7693($0)
80002678:	de481d0d 	ldc3	$8,7437($18)
8000267c:	0000000e 	0xe
80002680:	00000020 	add	$0,$0,$0
80002684:	00000494 	0x494
80002688:	800013f0 	lb	$0,5104($0)
8000268c:	00000080 	sll	$0,$0,0x2
80002690:	180e4400 	0x180e4400
80002694:	44019e44 	0x44019e44
80002698:	64021e0d 	0x64021e0d
8000269c:	de481d0d 	ldc3	$8,7437($18)
800026a0:	0000000e 	0xe
800026a4:	00000028 	0x28
800026a8:	000004b8 	0x4b8
800026ac:	80001470 	lb	$0,5232($0)
800026b0:	000002d0 	0x2d0
800026b4:	380e4400 	xori	$14,$0,0x4400
800026b8:	9e019f50 	0x9e019f50
800026bc:	90039102 	lbu	$3,-28414($0)
800026c0:	1e0d4404 	0x1e0d4404
800026c4:	0d029c03 	jal	840a700c <_bss_end+0x40a47dc>
800026c8:	d1d0541d 	0xd1d0541d
800026cc:	000edfde 	0xedfde
800026d0:	00000024 	and	$0,$0,$0
800026d4:	000004e4 	0x4e4
800026d8:	80001740 	lb	$0,5952($0)
800026dc:	00000270 	tge	$0,$0,0x9
800026e0:	200e4400 	addi	$14,$0,17408
800026e4:	9e019f48 	0x9e019f48
800026e8:	1e0d4402 	0x1e0d4402
800026ec:	0d024c03 	jal	8409300c <_bss_end+0x40907dc>
800026f0:	dfde4c1d 	ldc3	$30,19485($30)
800026f4:	0000000e 	0xe
800026f8:	00000024 	and	$0,$0,$0
800026fc:	0000050c 	syscall	0x14
80002700:	800019b0 	lb	$0,6576($0)
80002704:	000000d0 	0xd0
80002708:	200e4400 	addi	$14,$0,17408
8000270c:	9e019f48 	0x9e019f48
80002710:	1e0d4402 	0x1e0d4402
80002714:	1d0dac02 	0x1d0dac02
80002718:	0edfde4c 	jal	8b7f7930 <_bss_end+0xb7f5100>
8000271c:	00000000 	sll	$0,$0,0x0
80002720:	00000024 	and	$0,$0,$0
80002724:	00000534 	teq	$0,$0,0x14
80002728:	80001a80 	lb	$0,6784($0)
8000272c:	00000320 	0x320
80002730:	480e4400 	0x480e4400
80002734:	9e019f48 	0x9e019f48
80002738:	1e0d4402 	0x1e0d4402
8000273c:	0d02fc03 	jal	840bf00c <_bss_end+0x40bc7dc>
80002740:	dfde4c1d 	ldc3	$30,19485($30)
80002744:	0000000e 	0xe
80002748:	00000020 	add	$0,$0,$0
8000274c:	0000055c 	0x55c
80002750:	80001da0 	lb	$0,7584($0)
80002754:	00000178 	0x178
80002758:	200e4400 	addi	$14,$0,17408
8000275c:	44019e44 	0x44019e44
80002760:	5c031e0d 	0x5c031e0d
80002764:	481d0d01 	0x481d0d01
80002768:	00000ede 	0xede
8000276c:	00000020 	add	$0,$0,$0
80002770:	00000580 	sll	$0,$0,0x16
80002774:	80001f18 	lb	$0,7960($0)
80002778:	00000064 	0x64
8000277c:	080e4400 	j	80391000 <_bss_end+0x38e7d0>
80002780:	44019e44 	0x44019e44
80002784:	48021e0d 	0x48021e0d
80002788:	de481d0d 	ldc3	$8,7437($18)
8000278c:	0000000e 	0xe
80002790:	00000028 	0x28
80002794:	000005a4 	0x5a4
80002798:	80001f7c 	lb	$0,8060($0)
8000279c:	000000b4 	teq	$0,$0,0x2
800027a0:	280e4400 	slti	$14,$0,17408
800027a4:	9e019f50 	0x9e019f50
800027a8:	90039102 	lbu	$3,-28414($0)
800027ac:	1e0d4404 	0x1e0d4404
800027b0:	1d0d8002 	0x1d0d8002
800027b4:	ded1d054 	ldc3	$17,-12204($22)
800027b8:	00000edf 	0xedf
800027bc:	00000020 	add	$0,$0,$0
800027c0:	000005d0 	0x5d0
800027c4:	80002030 	lb	$0,8240($0)
800027c8:	000000bc 	0xbc
800027cc:	100e4400 	beq	$0,$14,800137d0 <_bss_end+0x10fa0>
800027d0:	44019e44 	0x44019e44
800027d4:	a0021e0d 	sb	$2,7693($0)
800027d8:	de481d0d 	ldc3	$8,7437($18)
800027dc:	0000000e 	0xe
800027e0:	00000020 	add	$0,$0,$0
800027e4:	000005f4 	teq	$0,$0,0x17
800027e8:	800020ec 	lb	$0,8428($0)
800027ec:	00000038 	0x38
800027f0:	080e4400 	j	80391000 <_bss_end+0x38e7d0>
800027f4:	44019e44 	0x44019e44
800027f8:	0d5c1e0d 	jal	85707834 <_bss_end+0x5705004>
800027fc:	0ede481d 	jal	8b792074 <_bss_end+0xb78f844>
80002800:	00000000 	sll	$0,$0,0x0

Disassembly of section .data:

80002810 <UART_RX>:
80002810:	bfd003f8 	cache	0x10,1016($30)

80002814 <UART_TX>:
80002814:	bfd003f8 	cache	0x10,1016($30)

80002818 <UART_STAT>:
80002818:	bfd003fc 	cache	0x10,1020($30)
8000281c:	00000000 	sll	$0,$0,0x0

Disassembly of section .bss:

80002820 <sys_index>:
80002820:	00000000 	sll	$0,$0,0x0

80002824 <overrun>:
	...

Disassembly of section .pdr:

00000000 <.pdr>:
   0:	80000398 	lb	$0,920($0)
   4:	40000000 	mfc0	$0,c0_index
   8:	fffffffc 	sdc3	$31,-4($31)
	...
  14:	00000008 	jr	$0
  18:	0000001e 	0x1e
  1c:	0000001f 	0x1f
  20:	80000408 	lb	$0,1032($0)
  24:	c0010000 	ll	$1,0($0)
  28:	fffffffc 	sdc3	$31,-4($31)
	...
  34:	00000068 	0x68
  38:	0000001e 	0x1e
  3c:	0000001f 	0x1f
  40:	80000620 	lb	$0,1568($0)
  44:	40000000 	mfc0	$0,c0_index
  48:	fffffffc 	sdc3	$31,-4($31)
	...
  54:	00000008 	jr	$0
  58:	0000001e 	0x1e
  5c:	0000001f 	0x1f
  60:	80000684 	lb	$0,1668($0)
  64:	40000000 	mfc0	$0,c0_index
  68:	fffffffc 	sdc3	$31,-4($31)
	...
  74:	00000008 	jr	$0
  78:	0000001e 	0x1e
  7c:	0000001f 	0x1f
  80:	800006dc 	lb	$0,1756($0)
  84:	c0000000 	ll	$0,0($0)
  88:	fffffffc 	sdc3	$31,-4($31)
	...
  94:	00000020 	add	$0,$0,$0
  98:	0000001e 	0x1e
  9c:	0000001f 	0x1f
  a0:	80000790 	lb	$0,1936($0)
  a4:	c0000000 	ll	$0,0($0)
  a8:	fffffffc 	sdc3	$31,-4($31)
	...
  b4:	00000020 	add	$0,$0,$0
  b8:	0000001e 	0x1e
  bc:	0000001f 	0x1f
  c0:	80000818 	lb	$0,2072($0)
  c4:	c0000000 	ll	$0,0($0)
  c8:	fffffffc 	sdc3	$31,-4($31)
	...
  d4:	00000020 	add	$0,$0,$0
  d8:	0000001e 	0x1e
  dc:	0000001f 	0x1f
  e0:	800008e8 	lb	$0,2280($0)
  e4:	c0000000 	ll	$0,0($0)
  e8:	fffffffc 	sdc3	$31,-4($31)
	...
  f4:	00000018 	mult	$0,$0
  f8:	0000001e 	0x1e
  fc:	0000001f 	0x1f
 100:	80000928 	lb	$0,2344($0)
 104:	c0000000 	ll	$0,0($0)
 108:	fffffffc 	sdc3	$31,-4($31)
	...
 114:	00000018 	mult	$0,$0
 118:	0000001e 	0x1e
 11c:	0000001f 	0x1f
 120:	80000964 	lb	$0,2404($0)
 124:	40000000 	mfc0	$0,c0_index
 128:	fffffffc 	sdc3	$31,-4($31)
	...
 134:	00000008 	jr	$0
 138:	0000001e 	0x1e
 13c:	0000001f 	0x1f
 140:	800009b8 	lb	$0,2488($0)
 144:	40000000 	mfc0	$0,c0_index
 148:	fffffffc 	sdc3	$31,-4($31)
	...
 154:	00000008 	jr	$0
 158:	0000001e 	0x1e
 15c:	0000001f 	0x1f
 160:	80000a20 	lb	$0,2592($0)
 164:	40000000 	mfc0	$0,c0_index
 168:	fffffffc 	sdc3	$31,-4($31)
	...
 174:	00000008 	jr	$0
 178:	0000001e 	0x1e
 17c:	0000001f 	0x1f
 180:	80000b18 	lb	$0,2840($0)
 184:	c0000000 	ll	$0,0($0)
 188:	fffffffc 	sdc3	$31,-4($31)
	...
 194:	00000018 	mult	$0,$0
 198:	0000001e 	0x1e
 19c:	0000001f 	0x1f
 1a0:	80000ba4 	lb	$0,2980($0)
 1a4:	c0000000 	ll	$0,0($0)
 1a8:	fffffffc 	sdc3	$31,-4($31)
	...
 1b4:	00000020 	add	$0,$0,$0
 1b8:	0000001e 	0x1e
 1bc:	0000001f 	0x1f
 1c0:	80000c34 	lb	$0,3124($0)
 1c4:	c0000000 	ll	$0,0($0)
 1c8:	fffffffc 	sdc3	$31,-4($31)
	...
 1d4:	00000018 	mult	$0,$0
 1d8:	0000001e 	0x1e
 1dc:	0000001f 	0x1f
 1e0:	80000ca0 	lb	$0,3232($0)
 1e4:	c0000000 	ll	$0,0($0)
 1e8:	fffffffc 	sdc3	$31,-4($31)
	...
 1f4:	00000028 	0x28
 1f8:	0000001e 	0x1e
 1fc:	0000001f 	0x1f
 200:	80000d84 	lb	$0,3460($0)
 204:	40000000 	mfc0	$0,c0_index
 208:	fffffffc 	sdc3	$31,-4($31)
	...
 214:	00000008 	jr	$0
 218:	0000001e 	0x1e
 21c:	0000001f 	0x1f
 220:	80000de0 	lb	$0,3552($0)
 224:	40000000 	mfc0	$0,c0_index
 228:	fffffffc 	sdc3	$31,-4($31)
	...
 234:	00000008 	jr	$0
 238:	0000001e 	0x1e
 23c:	0000001f 	0x1f
 240:	80000e3c 	lb	$0,3644($0)
 244:	40000000 	mfc0	$0,c0_index
 248:	fffffffc 	sdc3	$31,-4($31)
	...
 254:	00000008 	jr	$0
 258:	0000001e 	0x1e
 25c:	0000001f 	0x1f
 260:	80000e98 	lb	$0,3736($0)
 264:	40000000 	mfc0	$0,c0_index
 268:	fffffffc 	sdc3	$31,-4($31)
	...
 274:	00000008 	jr	$0
 278:	0000001e 	0x1e
 27c:	0000001f 	0x1f
 280:	80000ef4 	lb	$0,3828($0)
 284:	40000000 	mfc0	$0,c0_index
 288:	fffffffc 	sdc3	$31,-4($31)
	...
 294:	00000008 	jr	$0
 298:	0000001e 	0x1e
 29c:	0000001f 	0x1f
 2a0:	80000f20 	lb	$0,3872($0)
 2a4:	c0000000 	ll	$0,0($0)
 2a8:	fffffffc 	sdc3	$31,-4($31)
	...
 2b4:	00000018 	mult	$0,$0
 2b8:	0000001e 	0x1e
 2bc:	0000001f 	0x1f
 2c0:	80000f84 	lb	$0,3972($0)
 2c4:	c0000000 	ll	$0,0($0)
 2c8:	fffffffc 	sdc3	$31,-4($31)
	...
 2d4:	00000020 	add	$0,$0,$0
 2d8:	0000001e 	0x1e
 2dc:	0000001f 	0x1f
 2e0:	80001014 	lb	$0,4116($0)
 2e4:	c0000000 	ll	$0,0($0)
 2e8:	fffffffc 	sdc3	$31,-4($31)
	...
 2f4:	00000018 	mult	$0,$0
 2f8:	0000001e 	0x1e
 2fc:	0000001f 	0x1f
 300:	80001070 	lb	$0,4208($0)
 304:	40000000 	mfc0	$0,c0_index
 308:	fffffffc 	sdc3	$31,-4($31)
	...
 314:	00000010 	mfhi	$0
 318:	0000001e 	0x1e
 31c:	0000001f 	0x1f
 320:	800010e4 	lb	$0,4324($0)
 324:	40000000 	mfc0	$0,c0_index
 328:	fffffffc 	sdc3	$31,-4($31)
	...
 334:	00000010 	mfhi	$0
 338:	0000001e 	0x1e
 33c:	0000001f 	0x1f
 340:	80001168 	lb	$0,4456($0)
 344:	40000000 	mfc0	$0,c0_index
 348:	fffffffc 	sdc3	$31,-4($31)
	...
 354:	00000008 	jr	$0
 358:	0000001e 	0x1e
 35c:	0000001f 	0x1f
 360:	800011b4 	lb	$0,4532($0)
 364:	40000000 	mfc0	$0,c0_index
 368:	fffffffc 	sdc3	$31,-4($31)
	...
 374:	00000008 	jr	$0
 378:	0000001e 	0x1e
 37c:	0000001f 	0x1f
 380:	80001220 	lb	$0,4640($0)
 384:	40000000 	mfc0	$0,c0_index
 388:	fffffffc 	sdc3	$31,-4($31)
	...
 394:	00000008 	jr	$0
 398:	0000001e 	0x1e
 39c:	0000001f 	0x1f
 3a0:	8000128c 	lb	$0,4748($0)
 3a4:	40000000 	mfc0	$0,c0_index
 3a8:	fffffffc 	sdc3	$31,-4($31)
	...
 3b4:	00000008 	jr	$0
 3b8:	0000001e 	0x1e
 3bc:	0000001f 	0x1f
 3c0:	80001350 	lb	$0,4944($0)
 3c4:	40000000 	mfc0	$0,c0_index
 3c8:	fffffffc 	sdc3	$31,-4($31)
	...
 3d4:	00000010 	mfhi	$0
 3d8:	0000001e 	0x1e
 3dc:	0000001f 	0x1f
 3e0:	800013f0 	lb	$0,5104($0)
 3e4:	40000000 	mfc0	$0,c0_index
 3e8:	fffffffc 	sdc3	$31,-4($31)
	...
 3f4:	00000018 	mult	$0,$0
 3f8:	0000001e 	0x1e
 3fc:	0000001f 	0x1f
 400:	80001470 	lb	$0,5232($0)
 404:	c0030000 	ll	$3,0($0)
 408:	fffffffc 	sdc3	$31,-4($31)
	...
 414:	00000038 	0x38
 418:	0000001e 	0x1e
 41c:	0000001f 	0x1f
 420:	80001740 	lb	$0,5952($0)
 424:	c0000000 	ll	$0,0($0)
 428:	fffffffc 	sdc3	$31,-4($31)
	...
 434:	00000020 	add	$0,$0,$0
 438:	0000001e 	0x1e
 43c:	0000001f 	0x1f
 440:	800019b0 	lb	$0,6576($0)
 444:	c0000000 	ll	$0,0($0)
 448:	fffffffc 	sdc3	$31,-4($31)
	...
 454:	00000020 	add	$0,$0,$0
 458:	0000001e 	0x1e
 45c:	0000001f 	0x1f
 460:	80001a80 	lb	$0,6784($0)
 464:	c0000000 	ll	$0,0($0)
 468:	fffffffc 	sdc3	$31,-4($31)
	...
 474:	00000048 	0x48
 478:	0000001e 	0x1e
 47c:	0000001f 	0x1f
 480:	80001da0 	lb	$0,7584($0)
 484:	40000000 	mfc0	$0,c0_index
 488:	fffffffc 	sdc3	$31,-4($31)
	...
 494:	00000020 	add	$0,$0,$0
 498:	0000001e 	0x1e
 49c:	0000001f 	0x1f
 4a0:	80001f18 	lb	$0,7960($0)
 4a4:	40000000 	mfc0	$0,c0_index
 4a8:	fffffffc 	sdc3	$31,-4($31)
	...
 4b4:	00000008 	jr	$0
 4b8:	0000001e 	0x1e
 4bc:	0000001f 	0x1f
 4c0:	80001f7c 	lb	$0,8060($0)
 4c4:	c0030000 	ll	$3,0($0)
 4c8:	fffffffc 	sdc3	$31,-4($31)
	...
 4d4:	00000028 	0x28
 4d8:	0000001e 	0x1e
 4dc:	0000001f 	0x1f
 4e0:	80002030 	lb	$0,8240($0)
 4e4:	40000000 	mfc0	$0,c0_index
 4e8:	fffffffc 	sdc3	$31,-4($31)
	...
 4f4:	00000010 	mfhi	$0
 4f8:	0000001e 	0x1e
 4fc:	0000001f 	0x1f
 500:	800020ec 	lb	$0,8428($0)
 504:	40000000 	mfc0	$0,c0_index
 508:	fffffffc 	sdc3	$31,-4($31)
	...
 514:	00000008 	jr	$0
 518:	0000001e 	0x1e
 51c:	0000001f 	0x1f

Disassembly of section .comment:

00000000 <.comment>:
   0:	3a434347 	xori	$3,$18,0x4347
   4:	62552820 	0x62552820
   8:	75746e75 	jalx	5d1b9d4 <__start-0x7a2e462c>
   c:	342e3720 	ori	$14,$1,0x3720
  10:	312d302e 	andi	$13,$9,0x302e
  14:	6e756275 	0x6e756275
  18:	7e317574 	0x7e317574
  1c:	302e3831 	andi	$14,$1,0x3831
  20:	29312e34 	slti	$17,$9,11828
  24:	342e3720 	ori	$14,$1,0x3720
  28:	Address 0x0000000000000028 is out of bounds.


Disassembly of section .gnu.attributes:

00000000 <.gnu.attributes>:
   0:	00000f41 	0xf41
   4:	756e6700 	jalx	5b99c00 <__start-0x7a466400>
   8:	00070100 	sll	$0,$7,0x4
   c:	02040000 	0x2040000

Disassembly of section .debug_info:

00000000 <.debug_info>:
       0:	000002a7 	0x2a7
       4:	00000004 	sllv	$0,$0,$0
       8:	01040000 	0x1040000
       c:	00000032 	tlt	$0,$0
      10:	00016404 	0x16404
      14:	00020200 	sll	$0,$2,0x8
	...
      24:	06010200 	bgez	$16,828 <__start-0x7ffff7d8>
      28:	00000140 	sll	$0,$0,0x5
      2c:	db050202 	ldc2	$5,514($24)
      30:	03000001 	movf	$0,$24,$fcc0
      34:	6e690504 	0x6e690504
      38:	08020074 	j	801d0 <__start-0x7ff7fe30>
      3c:	0001c705 	0x1c705
      40:	01970400 	0x1970400
      44:	2e030000 	sltiu	$3,$16,0
      48:	0000004c 	syscall	0x1
      4c:	3e080102 	0x3e080102
      50:	04000001 	bltz	$0,58 <__start-0x7fffffa8>
      54:	000001e5 	0x1e5
      58:	005e3103 	0x5e3103
      5c:	02020000 	0x2020000
      60:	00015107 	0x15107
      64:	01ee0400 	0x1ee0400
      68:	34030000 	ori	$3,$0,0x0
      6c:	00000070 	tge	$0,$0,0x1
      70:	8a070402 	lwl	$7,1026($16)
      74:	02000001 	movf	$0,$16,$fcc0
      78:	01800708 	0x1800708
      7c:	04020000 	bltzl	$0,80 <__start-0x7fffff80>
      80:	00018507 	0x18507
      84:	01b50500 	0x1b50500
      88:	01140000 	0x1140000
      8c:	00011507 	0x11507
      90:	043f0600 	0x43f0600
      94:	0b010000 	j	c040000 <__start-0x73fc0000>
      98:	00000065 	0x65
      9c:	656c0700 	0x656c0700
      a0:	0c01006e 	jal	401b8 <__start-0x7ffbfe48>
      a4:	00000065 	0x65
      a8:	01350604 	0x1350604
      ac:	0d010000 	jal	4040000 <__start-0x7bfc0000>
      b0:	00000065 	0x65
      b4:	002a0608 	0x2a0608
      b8:	0e010000 	jal	8040000 <__start-0x77fc0000>
      bc:	00000065 	0x65
      c0:	0179060c 	syscall	0x5e418
      c4:	0f010000 	jal	c040000 <__start-0x73fc0000>
      c8:	00000065 	0x65
      cc:	01b50810 	0x1b50810
      d0:	09010000 	j	4040000 <__start-0x7bfc0000>
      d4:	00000116 	0x116
      d8:	000000e0 	0xe0
      dc:	000000ff 	0xff
      e0:	00011509 	0x11509
      e4:	00650a00 	0x650a00
      e8:	650a0000 	0x650a0000
      ec:	0a000000 	j	8000000 <__start-0x78000000>
      f0:	00000065 	0x65
      f4:	0000650a 	0x650a
      f8:	00650a00 	0x650a00
      fc:	0b000000 	j	c000000 <__start-0x74000000>
     100:	000001d5 	0x1d5
     104:	02571101 	0x2571101
     108:	010e0000 	0x10e0000
     10c:	15090000 	bne	$8,$9,110 <__start-0x7ffffef0>
     110:	00000001 	movf	$0,$0,$fcc0
     114:	85040c00 	lh	$4,3072($8)
     118:	0d000000 	jal	4000000 <__start-0x7c000000>
     11c:	00000115 	0x115
     120:	0001740e 	0x1740e
     124:	33070200 	andi	$7,$24,0x200
     128:	08000000 	j	0 <__start-0x80000000>
     12c:	18800004 	blez	$4,140 <__start-0x7ffffec0>
     130:	01000002 	0x1000002
     134:	0001f99c 	0x1f99c
     138:	04e90f00 	tgeiu	$7,3840
     13c:	0f020000 	jal	c080000 <__start-0x73f80000>
     140:	000001f9 	0x1f9
     144:	0f449102 	jal	d124408 <__start-0x72edbbf8>
     148:	00000102 	srl	$0,$0,0x4
     14c:	00332602 	ror	$4,$19,0x18
     150:	91030000 	lbu	$3,0($8)
     154:	5c107fb4 	0x5c107fb4
     158:	d0800004 	0xd0800004
     15c:	89000000 	lwl	$0,0($8)
     160:	11000001 	beqz	$8,168 <__start-0x7ffffe98>
     164:	19020069 	0x19020069
     168:	00000065 	0x65
     16c:	7fb09103 	0x7fb09103
     170:	00047012 	0x47012
     174:	0000a880 	sll	$21,$0,0x2
     178:	01100f00 	0x1100f00
     17c:	1b020000 	0x1b020000
     180:	00000085 	0x85
     184:	00549102 	0x549102
     188:	05301200 	bltzal	$9,498c <__start-0x7fffb674>
     18c:	00e88000 	0xe88000
     190:	350f0000 	ori	$15,$8,0x0
     194:	02000001 	movf	$0,$16,$fcc0
     198:	00003329 	0x3329
     19c:	68910200 	0x68910200
     1a0:	00016d0f 	0x16d0f
     1a4:	092a0200 	j	4a80800 <__start-0x7b57f800>
     1a8:	02000002 	0x2000002
     1ac:	72116c91 	0x72116c91
     1b0:	02007365 	0x2007365
     1b4:	0000332b 	0x332b
     1b8:	b8910300 	swr	$17,768($4)
     1bc:	019f0f7f 	0x19f0f7f
     1c0:	38020000 	xori	$2,$0,0x0
     1c4:	00000053 	mtlhx	$0
     1c8:	7fbc9103 	0x7fbc9103
     1cc:	0001aa0f 	0x1aa0f
     1d0:	53390200 	beql	$25,$25,9d4 <__start-0x7ffff62c>
     1d4:	03000000 	0x3000000
     1d8:	0f7fbe91 	jal	dfefa44 <__start-0x720105bc>
     1dc:	00000000 	sll	$0,$0,0x0
     1e0:	00533a02 	0x533a02
     1e4:	91020000 	lbu	$2,0($8)
     1e8:	01f70f40 	0x1f70f40
     1ec:	3b020000 	xori	$2,$24,0x0
     1f0:	00000053 	mtlhx	$0
     1f4:	00429102 	0x429102
     1f8:	00651300 	0x651300
     1fc:	02090000 	0x2090000
     200:	70140000 	madd	$0,$20
     204:	03000000 	0x3000000
     208:	41040c00 	0x41040c00
     20c:	15000000 	bnez	$8,210 <__start-0x7ffffdf0>
     210:	000000cd 	break	0x0,0x3
     214:	00021d02 	srl	$3,$2,0x14
     218:	00025e00 	sll	$11,$2,0x18
     21c:	014c1600 	0x14c1600
     220:	011b0000 	0x11b0000
     224:	3f170000 	0x3f170000
     228:	01000004 	sllv	$0,$0,$8
     22c:	00006509 	0x6509
     230:	656c1800 	0x656c1800
     234:	0901006e 	j	40401b8 <__start-0x7bfbfe48>
     238:	00000065 	0x65
     23c:	00013517 	0x13517
     240:	65090100 	0x65090100
     244:	17000000 	bnez	$24,248 <__start-0x7ffffdb8>
     248:	0000002a 	slt	$0,$0,$0
     24c:	00650901 	0x650901
     250:	79170000 	0x79170000
     254:	01000001 	movf	$0,$8,$fcc0
     258:	00006509 	0x6509
     25c:	0f190000 	jal	c640000 <__start-0x739c0000>
     260:	0b000002 	j	c000008 <__start-0x73fffff8>
     264:	79000000 	0x79000000
     268:	98000002 	lwr	$0,2($0)
     26c:	70800003 	0x70800003
     270:	01000000 	0x1000000
     274:	0002799c 	0x2799c
     278:	021d1a00 	0x21d1a00
     27c:	91020000 	lbu	$2,0($8)
     280:	02261a00 	0x2261a00
     284:	91020000 	lbu	$2,0($8)
     288:	02311a04 	0x2311a04
     28c:	91020000 	lbu	$2,0($8)
     290:	023c1a08 	0x23c1a08
     294:	91020000 	lbu	$2,0($8)
     298:	02471a0c 	syscall	0x91c68
     29c:	91020000 	lbu	$2,0($8)
     2a0:	02521a10 	0x2521a10
     2a4:	91020000 	lbu	$2,0($8)
     2a8:	d5000014 	ldc1	$f0,20($8)
     2ac:	04000001 	bltz	$0,2b4 <__start-0x7ffffd4c>
     2b0:	00015b00 	sll	$11,$1,0xc
     2b4:	32010400 	andi	$1,$16,0x400
     2b8:	04000000 	bltz	$0,2bc <__start-0x7ffffd44>
     2bc:	00000297 	0x297
     2c0:	00000202 	srl	$0,$0,0x8
     2c4:	00000018 	mult	$0,$0
     2c8:	00000000 	sll	$0,$0,0x0
     2cc:	000000c3 	sra	$0,$0,0x3
     2d0:	40060102 	0x40060102
     2d4:	02000001 	movf	$0,$16,$fcc0
     2d8:	01db0502 	0x1db0502
     2dc:	04030000 	bgezl	$0,2e0 <__start-0x7ffffd20>
     2e0:	746e6905 	jalx	1b9a414 <__start-0x7e465bec>
     2e4:	05080200 	tgei	$8,512
     2e8:	000001c7 	0x1c7
     2ec:	00019704 	0x19704
     2f0:	4c2e0200 	0x4c2e0200
     2f4:	02000000 	0x2000000
     2f8:	013e0801 	0x13e0801
     2fc:	02020000 	0x2020000
     300:	00015107 	0x15107
     304:	01ee0400 	0x1ee0400
     308:	34020000 	ori	$2,$0,0x0
     30c:	0000006a 	0x6a
     310:	00005a05 	0x5a05
     314:	07040200 	0x7040200
     318:	0000018a 	0x18a
     31c:	80070802 	lb	$7,2050($0)
     320:	06000001 	bltz	$16,328 <__start-0x7ffffcd8>
     324:	000002c2 	srl	$0,$0,0xb
     328:	00890401 	0x890401
     32c:	03050000 	0x3050000
     330:	80002810 	lb	$0,10256($0)
     334:	00650407 	0x650407
     338:	76060000 	jalx	8180000 <__start-0x77e80000>
     33c:	01000002 	0x1000002
     340:	00008905 	0x8905
     344:	14030500 	bne	$0,$3,1748 <__start-0x7fffe8b8>
     348:	06800028 	bltz	$20,3ec <__start-0x7ffffc14>
     34c:	00000283 	sra	$0,$0,0xa
     350:	00890601 	0x890601
     354:	03050000 	0x3050000
     358:	80002818 	lb	$0,10264($0)
     35c:	00027e08 	0x27e08
     360:	284a0100 	slti	$10,$2,256
     364:	3c800009 	0x3c800009
     368:	01000000 	0x1000000
     36c:	0000d59c 	0xd59c
     370:	70650900 	0x70650900
     374:	4a010063 	c2	0x10063
     378:	0000005a 	0x5a
     37c:	00009102 	srl	$18,$0,0x4
     380:	0002ad0a 	0x2ad0a
     384:	e83b0100 	swc2	$27,256($1)
     388:	40800008 	0x40800008
     38c:	01000000 	0x1000000
     390:	02ca089c 	0x2ca089c
     394:	2c010000 	sltiu	$1,$0,0
     398:	80000818 	lb	$0,2072($0)
     39c:	000000d0 	0xd0
     3a0:	01249c01 	0x1249c01
     3a4:	6e090000 	0x6e090000
     3a8:	01006d75 	0x1006d75
     3ac:	00005a2c 	0x5a2c
     3b0:	00910200 	0x910200
     3b4:	0100690b 	0x100690b
     3b8:	0000332e 	0x332e
     3bc:	70910200 	0x70910200
     3c0:	0002920c 	syscall	0xa48
     3c4:	332e0100 	andi	$14,$25,0x100
     3c8:	02000000 	0x2000000
     3cc:	08007491 	j	1d244 <__start-0x7ffe2dbc>
     3d0:	000002bd 	0x2bd
     3d4:	07902301 	bltzal	$28,8fdc <__start-0x7fff7024>
     3d8:	00888000 	0x888000
     3dc:	9c010000 	0x9c010000
     3e0:	0000016a 	0x16a
     3e4:	01007309 	0x1007309
     3e8:	00016a23 	0x16a23
     3ec:	00910200 	0x910200
     3f0:	6e656c09 	0x6e656c09
     3f4:	33230100 	andi	$3,$25,0x100
     3f8:	02000000 	0x2000000
     3fc:	a80d0491 	swl	$13,1169($0)
     400:	48800007 	mtc2	$0,$0,7
     404:	0b000000 	j	c000000 <__start-0x74000000>
     408:	25010069 	addiu	$1,$8,105
     40c:	00000033 	tltu	$0,$0
     410:	00709102 	0x709102
     414:	77040700 	jalx	c101c00 <__start-0x73efe400>
     418:	02000001 	movf	$0,$16,$fcc0
     41c:	01470601 	0x1470601
     420:	700e0000 	madd	$0,$14
     424:	0f000001 	jal	c000004 <__start-0x73fffffc>
     428:	000002a6 	0x2a6
     42c:	005a1601 	0x5a1601
     430:	06dc0000 	0x6dc0000
     434:	00b48000 	0xb48000
     438:	9c010000 	0x9c010000
     43c:	000001a4 	0x1a4
     440:	6e656c0b 	0x6e656c0b
     444:	5a180100 	0x5a180100
     448:	02000000 	0x2000000
     44c:	10007091 	beqz	$0,1c694 <__start-0x7ffe396c>
     450:	0000028d 	break	0x0,0xa
     454:	00410f01 	0x410f01
     458:	06840000 	0x6840000
     45c:	00588000 	0x588000
     460:	9c010000 	0x9c010000
     464:	0002b811 	0x2b811
     468:	20080100 	addi	$8,$0,256
     46c:	64800006 	0x64800006
     470:	01000000 	0x1000000
     474:	6863099c 	0x6863099c
     478:	70080100 	0x70080100
     47c:	02000001 	movf	$0,$16,$fcc0
     480:	00000091 	0x91
     484:	0000055a 	0x55a
     488:	02660004 	sllv	$0,$6,$19
     48c:	01040000 	0x1040000
     490:	00000032 	tlt	$0,$0
     494:	0003fc04 	0x3fc04
     498:	00020200 	sll	$0,$2,0x8
     49c:	00005800 	sll	$11,$0,0x0
     4a0:	00000000 	sll	$0,$0,0x0
     4a4:	0001ec00 	sll	$29,$1,0x10
     4a8:	06010200 	bgez	$16,cac <__start-0x7ffff354>
     4ac:	00000140 	sll	$0,$0,0x5
     4b0:	db050202 	ldc2	$5,514($24)
     4b4:	03000001 	movf	$0,$24,$fcc0
     4b8:	6e690504 	0x6e690504
     4bc:	08020074 	j	801d0 <__start-0x7ff7fe30>
     4c0:	0001c705 	0x1c705
     4c4:	01970400 	0x1970400
     4c8:	2e020000 	sltiu	$2,$16,0
     4cc:	00000051 	0x51
     4d0:	00004105 	0x4105
     4d4:	08010200 	j	40800 <__start-0x7ffbf800>
     4d8:	0000013e 	0x13e
     4dc:	0001e504 	0x1e504
     4e0:	63310200 	0x63310200
     4e4:	02000000 	0x2000000
     4e8:	01510702 	0x1510702
     4ec:	ee040000 	swc3	$4,0($16)
     4f0:	02000001 	movf	$0,$16,$fcc0
     4f4:	00007534 	teq	$0,$0,0x1d4
     4f8:	07040200 	0x7040200
     4fc:	0000018a 	0x18a
     500:	80070802 	lb	$7,2050($0)
     504:	04000001 	bltz	$0,50c <__start-0x7ffffaf4>
     508:	000003cd 	break	0x0,0xf
     50c:	006a0803 	0x6a0803
     510:	06040000 	0x6040000
     514:	03000003 	0x3000003
     518:	00009909 	0x9909
     51c:	07040200 	0x7040200
     520:	00000185 	0x185
     524:	76696406 	jalx	9a59018 <__start-0x765a6fe8>
     528:	42890100 	c0	0x890100
     52c:	8c000003 	lw	$0,3($0)
     530:	c4800012 	lwc1	$f0,18($4)
     534:	01000000 	0x1000000
     538:	0000ea9c 	0xea9c
     53c:	00610700 	0x610700
     540:	00338901 	0x338901
     544:	91020000 	lbu	$2,0($8)
     548:	00620700 	0x620700
     54c:	00338901 	0x338901
     550:	91020000 	lbu	$2,0($8)
     554:	00780704 	0x780704
     558:	00ea8901 	0xea8901
     55c:	91020000 	lbu	$2,0($8)
     560:	00790708 	0x790708
     564:	00ea8901 	0xea8901
     568:	91020000 	lbu	$2,0($8)
     56c:	0408000c 	tgei	$0,12
     570:	00000033 	tltu	$0,$0
     574:	00043a09 	0x43a09
     578:	f7840100 	sdc1	$f4,256($28)
     57c:	83000002 	lb	$0,2($24)
     580:	20000000 	addi	$0,$0,0
     584:	6c800012 	0x6c800012
     588:	01000000 	0x1000000
     58c:	00011a9c 	0x11a9c
     590:	00700700 	0x700700
     594:	011a8401 	0x11a8401
     598:	91020000 	lbu	$2,0($8)
     59c:	040a0000 	tlti	$0,0
     5a0:	00000041 	0x41
     5a4:	00037509 	0x37509
     5a8:	647c0100 	0x647c0100
     5ac:	4a000004 	c2	0x4
     5b0:	b4000001 	0xb4000001
     5b4:	6c800011 	0x6c800011
     5b8:	01000000 	0x1000000
     5bc:	00014a9c 	0x14a9c
     5c0:	00780700 	0x780700
     5c4:	00337c01 	0x337c01
     5c8:	91020000 	lbu	$2,0($8)
     5cc:	01020000 	0x1020000
     5d0:	00014706 	0x14706
     5d4:	014a0500 	0x14a0500
     5d8:	6d0b0000 	0x6d0b0000
     5dc:	01006e69 	0x1006e69
     5e0:	0003f377 	0x3f377
     5e4:	00007500 	sll	$14,$0,0x14
     5e8:	00116800 	sll	$13,$17,0x0
     5ec:	00004c80 	sll	$9,$0,0x12
     5f0:	8c9c0100 	lw	$28,256($4)
     5f4:	07000001 	bltz	$24,5fc <__start-0x7ffffa04>
     5f8:	77010078 	jalx	c0401e0 <__start-0x73fbfe20>
     5fc:	00000075 	0x75
     600:	07009102 	bltz	$24,fffe4a0c <_bss_end+0x7ffe21dc>
     604:	77010079 	jalx	c0401e4 <__start-0x73fbfe1c>
     608:	00000075 	0x75
     60c:	00049102 	srl	$18,$4,0x4
     610:	0003280c 	syscall	0xca0
     614:	66700100 	0x66700100
     618:	e4000003 	swc1	$f0,3($0)
     61c:	84800010 	lh	$0,16($4)
     620:	01000000 	0x1000000
     624:	0001ec9c 	0x1ec9c
     628:	73640700 	0x73640700
     62c:	70010074 	0x70010074
     630:	000001ec 	0x1ec
     634:	07009102 	bltz	$24,fffe4a40 <_bss_end+0x7ffe2210>
     638:	00637273 	tltu	$3,$3,0x1c9
     63c:	01ec7001 	movf	$14,$15,$fcc3
     640:	91020000 	lbu	$2,0($8)
     644:	656c0704 	0x656c0704
     648:	7001006e 	0x7001006e
     64c:	0000008e 	0x8e
     650:	0d089102 	jal	4224408 <__start-0x7bddbbf8>
     654:	00000454 	0x454
     658:	01ee7201 	0x1ee7201
     65c:	91020000 	lbu	$2,0($8)
     660:	04440d70 	0x4440d70
     664:	72010000 	madd	$16,$1
     668:	000001ee 	0x1ee
     66c:	00749102 	0x749102
     670:	040a040e 	tlti	$0,1038
     674:	0000014a 	0x14a
     678:	00035f0c 	syscall	0xd7c
     67c:	e3690100 	sc	$9,256($27)
     680:	70000002 	mul	$0,$0,$0
     684:	74800010 	jalx	2000040 <__start-0x7dffffc0>
     688:	01000000 	0x1000000
     68c:	0002419c 	0x2419c
     690:	00730700 	0x730700
     694:	01ec6901 	0x1ec6901
     698:	91020000 	lbu	$2,0($8)
     69c:	00630700 	0x630700
     6a0:	014a6901 	0x14a6901
     6a4:	91020000 	lbu	$2,0($8)
     6a8:	656c0704 	0x656c0704
     6ac:	6901006e 	0x6901006e
     6b0:	0000008e 	0x8e
     6b4:	0f089102 	jal	c224408 <__start-0x73ddbbf8>
     6b8:	01007363 	0x1007363
     6bc:	0001ee6b 	0x1ee6b
     6c0:	70910200 	0x70910200
     6c4:	03531000 	0x3531000
     6c8:	5d010000 	0x5d010000
     6cc:	000003e8 	0x3e8
     6d0:	80001014 	lb	$0,4116($0)
     6d4:	0000005c 	0x5c
     6d8:	02679c01 	0x2679c01
     6dc:	78070000 	0x78070000
     6e0:	335d0100 	andi	$29,$26,0x100
     6e4:	02000000 	0x2000000
     6e8:	10000091 	beqz	$0,930 <__start-0x7ffff6d0>
     6ec:	0000034f 	sync	0xd
     6f0:	03985101 	0x3985101
     6f4:	0f840000 	jal	e100000 <__start-0x71f00000>
     6f8:	00908000 	0x908000
     6fc:	9c010000 	0x9c010000
     700:	000002b1 	tgeu	$0,$0,0xa
     704:	01007807 	srav	$15,$0,$8
     708:	00003351 	0x3351
     70c:	00910200 	0x910200
     710:	000fa411 	0xfa411
     714:	00005480 	sll	$10,$0,0x12
     718:	30780f00 	andi	$24,$3,0xf00
     71c:	33550100 	andi	$21,$26,0x100
     720:	02000000 	0x2000000
     724:	780f7091 	0x780f7091
     728:	55010031 	bnel	$8,$1,7f0 <__start-0x7ffff810>
     72c:	00000033 	tltu	$0,$0
     730:	00749102 	0x749102
     734:	03531000 	0x3531000
     738:	4b010000 	c2	0x1010000
     73c:	00000335 	0x335
     740:	80000f20 	lb	$0,3872($0)
     744:	00000064 	0x64
     748:	02d79c01 	0x2d79c01
     74c:	73070000 	madd	$24,$7
     750:	d74b0100 	ldc1	$f11,256($26)
     754:	02000002 	0x2000002
     758:	0a000091 	j	8000244 <__start-0x77fffdbc>
     75c:	00015104 	0x15104
     760:	030d0c00 	0x30d0c00
     764:	49010000 	bc2t	768 <__start-0x7ffff898>
     768:	000002d7 	0x2d7
     76c:	80000ef4 	lb	$0,3828($0)
     770:	0000002c 	0x2c
     774:	03039c01 	0x3039c01
     778:	63070000 	0x63070000
     77c:	4a490100 	c2	0x490100
     780:	02000001 	movf	$0,$16,$fcc0
     784:	09000091 	j	4000244 <__start-0x7bfffdbc>
     788:	000002f1 	tgeu	$0,$0,0xb
     78c:	03b44401 	0x3b44401
     790:	00580000 	0x580000
     794:	0e980000 	jal	a600000 <__start-0x75a00000>
     798:	005c8000 	0x5c8000
     79c:	9c010000 	0x9c010000
     7a0:	0000032e 	0x32e
     7a4:	00736e07 	0x736e07
     7a8:	00584401 	0x584401
     7ac:	91020000 	lbu	$2,0($8)
     7b0:	2f090000 	sltiu	$9,$24,0
     7b4:	01000003 	0x1000003
     7b8:	0004293f 	0x4293f
     7bc:	00005800 	sll	$11,$0,0x0
     7c0:	000e3c00 	sll	$7,$14,0x10
     7c4:	00005c80 	sll	$11,$0,0x12
     7c8:	599c0100 	0x599c0100
     7cc:	07000003 	bltz	$24,7dc <__start-0x7ffff824>
     7d0:	01007368 	0x1007368
     7d4:	0000583f 	0x583f
     7d8:	00910200 	0x910200
     7dc:	02d10900 	0x2d10900
     7e0:	3a010000 	xori	$1,$16,0x0
     7e4:	0000044a 	0x44a
     7e8:	0000006a 	0x6a
     7ec:	80000de0 	lb	$0,3552($0)
     7f0:	0000005c 	0x5c
     7f4:	03849c01 	0x3849c01
     7f8:	6e070000 	0x6e070000
     7fc:	3a01006c 	xori	$1,$16,0x6c
     800:	0000006a 	0x6a
     804:	00009102 	srl	$18,$0,0x4
     808:	00041a09 	0x41a09
     80c:	5a350100 	0x5a350100
     810:	6a000004 	0x6a000004
     814:	84000000 	lh	$0,0($0)
     818:	5c80000d 	bgtzl	$4,850 <__start-0x7ffff7b0>
     81c:	01000000 	0x1000000
     820:	0003af9c 	0x3af9c
     824:	6c680700 	0x6c680700
     828:	6a350100 	0x6a350100
     82c:	02000000 	0x2000000
     830:	12000091 	beqz	$16,a78 <__start-0x7ffff588>
     834:	00000470 	tge	$0,$0,0x11
     838:	03d72701 	0x3d72701
     83c:	00580000 	0x580000
     840:	0ca00000 	jal	2800000 <__start-0x7d800000>
     844:	00e48000 	0xe48000
     848:	9c010000 	0x9c010000
     84c:	00000409 	jalr.hb	$0,$0
     850:	00016d13 	0x16d13
     854:	1a270100 	0x1a270100
     858:	02000001 	movf	$0,$16,$fcc0
     85c:	6e0f0091 	0x6e0f0091
     860:	6a290100 	0x6a290100
     864:	02000000 	0x2000000
     868:	780f7091 	0x780f7091
     86c:	6a2b0100 	0x6a2b0100
     870:	02000000 	0x2000000
     874:	cc116891 	pref	0x11,26769($0)
     878:	5c80000c 	bgtzl	$4,8ac <__start-0x7ffff754>
     87c:	0f000000 	jal	c000000 <__start-0x74000000>
     880:	2c010069 	sltiu	$1,$0,105
     884:	0000006a 	0x6a
     888:	006c9102 	0x6c9102
     88c:	035a1200 	0x35a1200
     890:	22010000 	addi	$1,$16,0
     894:	00000408 	jr.hb	$0
     898:	0000006a 	0x6a
     89c:	80000c34 	lb	$0,3124($0)
     8a0:	0000006c 	0x6c
     8a4:	04439c01 	bgezl	$2,fffe78ac <_bss_end+0x7ffe507c>
     8a8:	3f130000 	0x3f130000
     8ac:	01000004 	sllv	$0,$0,$8
     8b0:	00006a22 	0x6a22
     8b4:	00910200 	0x910200
     8b8:	6e656c07 	0x6e656c07
     8bc:	33220100 	andi	$2,$25,0x100
     8c0:	02000000 	0x2000000
     8c4:	10000491 	beqz	$0,1b0c <__start-0x7fffe4f4>
     8c8:	00000433 	tltu	$0,$0,0x10
     8cc:	031d1c01 	0x31d1c01
     8d0:	0ba40000 	j	e900000 <__start-0x71700000>
     8d4:	00908000 	0x908000
     8d8:	9c010000 	0x9c010000
     8dc:	0000047f 	0x47f
     8e0:	01007807 	srav	$15,$0,$8
     8e4:	00006a1c 	0x6a1c
     8e8:	00910200 	0x910200
     8ec:	000bb811 	0xbb811
     8f0:	00006080 	sll	$12,$0,0x2
     8f4:	00690f00 	0x690f00
     8f8:	00331e01 	0x331e01
     8fc:	91020000 	lbu	$2,0($8)
     900:	14000070 	bnez	$0,ac4 <__start-0x7ffff53c>
     904:	0074756f 	0x74756f
     908:	04201601 	bltz	$1,6110 <__start-0x7fff9ef0>
     90c:	0b180000 	j	c600000 <__start-0x73a00000>
     910:	008c8000 	0x8c8000
     914:	9c010000 	0x9c010000
     918:	000004b1 	tgeu	$0,$0,0x12
     91c:	01007807 	srav	$15,$0,$8
     920:	00007516 	0x7516
     924:	00910200 	0x910200
     928:	01006e07 	0x1006e07
     92c:	00003316 	0x3316
     930:	04910200 	bgezal	$4,1134 <__start-0x7fffeecc>
     934:	04120900 	bltzall	$0,2d38 <__start-0x7fffd2c8>
     938:	0e010000 	jal	8040000 <__start-0x77fc0000>
     93c:	000003a8 	0x3a8
     940:	00000041 	0x41
     944:	80000a20 	lb	$0,2592($0)
     948:	000000f8 	0xf8
     94c:	04db9c01 	0x4db9c01
     950:	62070000 	0x62070000
     954:	410e0100 	0x410e0100
     958:	02000000 	0x2000000
     95c:	0c000091 	jal	244 <__start-0x7ffffdbc>
     960:	0000037d 	0x37d
     964:	03870801 	0x3870801
     968:	09b80000 	j	6e00000 <__start-0x79200000>
     96c:	00688000 	0x688000
     970:	9c010000 	0x9c010000
     974:	0000051d 	0x51d
     978:	00016d13 	0x16d13
     97c:	1a080100 	0x1a080100
     980:	02000001 	movf	$0,$16,$fcc0
     984:	38130091 	xori	$19,$0,0x91
     988:	01000001 	movf	$0,$8,$fcc0
     98c:	00008e08 	0x8e08
     990:	04910200 	bgezal	$4,1194 <__start-0x7fffee6c>
     994:	01007807 	srav	$15,$0,$8
     998:	00003308 	0x3308
     99c:	08910200 	j	2440800 <__start-0x7dbbf800>
     9a0:	03150900 	0x3150900
     9a4:	03010000 	0x3010000
     9a8:	000003be 	0x3be
     9ac:	00000033 	tltu	$0,$0
     9b0:	80000964 	lb	$0,2404($0)
     9b4:	00000054 	0x54
     9b8:	05579c01 	0x5579c01
     9bc:	6d130000 	0x6d130000
     9c0:	01000001 	movf	$0,$8,$fcc0
     9c4:	00055703 	sra	$10,$5,0x1c
     9c8:	00910200 	0x910200
     9cc:	00013813 	0x13813
     9d0:	8e030100 	lw	$3,256($16)
     9d4:	02000000 	0x2000000
     9d8:	0a000491 	j	8001244 <__start-0x77ffedbc>
     9dc:	00004c04 	0x4c04
     9e0:	02d80000 	0x2d80000
     9e4:	00040000 	sll	$0,$4,0x0
     9e8:	000003be 	0x3be
     9ec:	00320104 	0x320104
     9f0:	a0040000 	sb	$4,0($0)
     9f4:	02000004 	sllv	$0,$0,$16
     9f8:	08000002 	j	8 <__start-0x7ffffff8>
     9fc:	00000001 	movf	$0,$0,$fcc0
     a00:	59000000 	blezl	$8,a04 <__start-0x7ffff5fc>
     a04:	02000004 	sllv	$0,$0,$16
     a08:	01400601 	0x1400601
     a0c:	02020000 	0x2020000
     a10:	0001db05 	0x1db05
     a14:	05040300 	0x5040300
     a18:	00746e69 	0x746e69
     a1c:	00003304 	0x3304
     a20:	04c00500 	bltz	$6,1e24 <__start-0x7fffe1dc>
     a24:	2b020000 	slti	$2,$24,0
     a28:	0000004a 	0x4a
     a2c:	c7050802 	lwc1	$f5,2050($24)
     a30:	05000001 	bltz	$8,a38 <__start-0x7ffff5c8>
     a34:	00000197 	0x197
     a38:	005c2e02 	0x5c2e02
     a3c:	01020000 	0x1020000
     a40:	00013e08 	0x13e08
     a44:	07020200 	bltzl	$24,1248 <__start-0x7fffedb8>
     a48:	00000151 	0x151
     a4c:	0001ee05 	0x1ee05
     a50:	7f340200 	0x7f340200
     a54:	04000000 	bltz	$0,a58 <__start-0x7ffff5a8>
     a58:	0000006a 	0x6a
     a5c:	00006a06 	0x6a06
     a60:	07040200 	0x7040200
     a64:	0000018a 	0x18a
     a68:	0004bf05 	0x4bf05
     a6c:	96370200 	lhu	$23,512($17)
     a70:	06000000 	bltz	$16,a74 <__start-0x7ffff58c>
     a74:	00000086 	0x86
     a78:	80070802 	lb	$7,2050($0)
     a7c:	05000001 	bltz	$8,a84 <__start-0x7ffff57c>
     a80:	000003cd 	break	0x0,0xf
     a84:	006a0803 	0x6a0803
     a88:	06050000 	0x6050000
     a8c:	03000003 	0x3000003
     a90:	0000b309 	0xb309
     a94:	07040200 	0x7040200
     a98:	00000185 	0x185
     a9c:	00053107 	0x53107
     aa0:	75050100 	jalx	4140400 <__start-0x7bebfc00>
     aa4:	05000000 	bltz	$8,aa8 <__start-0x7ffff558>
     aa8:	00213003 	0x213003
     aac:	054d0780 	0x54d0780
     ab0:	06010000 	bgez	$16,ab4 <__start-0x7ffff54c>
     ab4:	00000075 	0x75
     ab8:	21340305 	addi	$20,$9,773
     abc:	78078000 	0x78078000
     ac0:	01000005 	0x1000005
     ac4:	00007507 	0x7507
     ac8:	38030500 	xori	$3,$0,0x500
     acc:	07800021 	bltz	$28,b54 <__start-0x7ffff4ac>
     ad0:	0000051d 	0x51d
     ad4:	00750801 	movt	$1,$3,$fcc5
     ad8:	03050000 	0x3050000
     adc:	8000213c 	lb	$0,8508($0)
     ae0:	00058b07 	0x58b07
     ae4:	75090100 	jalx	4240400 <__start-0x7bdbfc00>
     ae8:	05000000 	bltz	$8,aec <__start-0x7ffff514>
     aec:	00214003 	0x214003
     af0:	04f40780 	0x4f40780
     af4:	0a010000 	j	8040000 <__start-0x77fc0000>
     af8:	00000075 	0x75
     afc:	21440305 	addi	$4,$10,773
     b00:	ab078000 	swl	$7,-32768($24)
     b04:	01000004 	sllv	$0,$0,$8
     b08:	00003a0c 	syscall	0xe8
     b0c:	48030500 	0x48030500
     b10:	08800021 	j	2000084 <__start-0x7dffff7c>
     b14:	000004fe 	0x4fe
     b18:	00330e01 	0x330e01
     b1c:	03050000 	0x3050000
     b20:	80002820 	lb	$0,10272($0)
     b24:	0004b708 	0x4b708
     b28:	330f0100 	andi	$15,$24,0x100
     b2c:	05000000 	bltz	$8,b30 <__start-0x7ffff4d0>
     b30:	00282403 	0x282403
     b34:	04c80980 	tgei	$6,2432
     b38:	63010000 	0x63010000
     b3c:	80001740 	lb	$0,5952($0)
     b40:	00000270 	tge	$0,$0,0x9
     b44:	01b79c01 	0x1b79c01
     b48:	350a0000 	ori	$10,$8,0x0
     b4c:	01000001 	movf	$0,$8,$fcc0
     b50:	00003363 	0x3363
     b54:	00910200 	0x910200
     b58:	00056c0a 	0x56c0a
     b5c:	b7630100 	0xb7630100
     b60:	02000001 	movf	$0,$16,$fcc0
     b64:	9d0a0491 	0x9d0a0491
     b68:	01000005 	0x1000005
     b6c:	0000a863 	0xa863
     b70:	08910200 	j	2440800 <__start-0x7dbbf800>
     b74:	00048a07 	0x48a07
     b78:	bd7d0100 	cache	0x1d,256($11)
     b7c:	02000001 	movf	$0,$16,$fcc0
     b80:	c40b7491 	lwc1	$f11,29841($0)
     b84:	c4800018 	lwc1	$f0,24($4)
     b88:	0c000000 	jal	0 <__start-0x80000000>
     b8c:	86010069 	lh	$1,105($16)
     b90:	00000033 	tltu	$0,$0
     b94:	00709102 	0x709102
     b98:	51040d00 	beql	$8,$4,3f9c <__start-0x7fffc064>
     b9c:	0d000000 	jal	4000000 <__start-0x7c000000>
     ba0:	00007a04 	0x7a04
     ba4:	05080e00 	tgei	$8,3584
     ba8:	25010000 	addiu	$1,$8,0
     bac:	00000033 	tltu	$0,$0
     bb0:	80001470 	lb	$0,5232($0)
     bb4:	000002d0 	0x2d0
     bb8:	02559c01 	0x2559c01
     bbc:	6c0a0000 	0x6c0a0000
     bc0:	01000005 	0x1000005
     bc4:	00025525 	0x25525
     bc8:	00910200 	0x910200
     bcc:	0005450a 	0x5450a
     bd0:	3f250100 	0x3f250100
     bd4:	02000000 	0x2000000
     bd8:	350a0891 	ori	$10,$8,0x891
     bdc:	01000001 	movf	$0,$8,$fcc0
     be0:	00025b25 	0x25b25
     be4:	10910200 	beq	$4,$17,13e8 <__start-0x7fffec18>
     be8:	00047b07 	0x47b07
     bec:	bd280100 	cache	0x8,256($9)
     bf0:	02000001 	movf	$0,$16,$fcc0
     bf4:	62075c91 	0x62075c91
     bf8:	01000005 	0x1000005
     bfc:	00008629 	0x8629
     c00:	60910200 	0x60910200
     c04:	00057307 	0x57307
     c08:	332e0100 	andi	$14,$25,0x100
     c0c:	02000000 	0x2000000
     c10:	720c6891 	0x720c6891
     c14:	01007365 	0x1007365
     c18:	00003345 	0x3345
     c1c:	6c910200 	0x6c910200
     c20:	00164c0b 	0x164c0b
     c24:	0000c480 	sll	$24,$0,0x12
     c28:	00690c00 	0x690c00
     c2c:	00335001 	0x335001
     c30:	91020000 	lbu	$2,0($8)
     c34:	0f000058 	jal	c000160 <__start-0x73fffea0>
     c38:	0001b704 	0x1b704
     c3c:	33040d00 	andi	$4,$24,0xd00
     c40:	10000000 	beqz	$0,c44 <__start-0x7ffff3bc>
     c44:	00000497 	0x497
     c48:	00861e01 	0x861e01
     c4c:	13f00000 	beq	$31,$16,c50 <__start-0x7ffff3b0>
     c50:	00808000 	0x808000
     c54:	9c010000 	0x9c010000
     c58:	00000297 	0x297
     c5c:	0004e007 	srav	$28,$4,$0
     c60:	91200100 	lbu	$0,256($9)
     c64:	02000000 	0x2000000
     c68:	da076891 	ldc2	$7,26769($16)
     c6c:	01000004 	sllv	$0,$0,$8
     c70:	00009121 	0x9121
     c74:	70910200 	0x70910200
     c78:	04ef1000 	0x4ef1000
     c7c:	11010000 	beq	$8,$1,c80 <__start-0x7ffff380>
     c80:	00000033 	tltu	$0,$0
     c84:	80001350 	lb	$0,4944($0)
     c88:	000000a0 	0xa0
     c8c:	02d59c01 	0x2d59c01
     c90:	e60a0000 	swc1	$f10,0($16)
     c94:	01000004 	sllv	$0,$0,$8
     c98:	0002d511 	0x2d511
     c9c:	00910200 	0x910200
     ca0:	0013700b 	movn	$14,$0,$19
     ca4:	00006880 	sll	$13,$0,0x2
     ca8:	00690c00 	0x690c00
     cac:	00331501 	0x331501
     cb0:	91020000 	lbu	$2,0($8)
     cb4:	0d000070 	jal	40001c0 <__start-0x7bfffe40>
     cb8:	00009d04 	0x9d04
     cbc:	03670000 	0x3670000
     cc0:	00040000 	sll	$0,$4,0x0
     cc4:	000004a8 	0x4a8
     cc8:	00320104 	0x320104
     ccc:	48040000 	mfc2	$4,$0
     cd0:	02000006 	srlv	$0,$0,$16
     cd4:	30000002 	andi	$0,$0,0x2
     cd8:	00000001 	movf	$0,$0,$fcc0
     cdc:	b1000000 	0xb1000000
     ce0:	02000005 	0x2000005
     ce4:	01400601 	0x1400601
     ce8:	02020000 	0x2020000
     cec:	0001db05 	0x1db05
     cf0:	05040300 	0x5040300
     cf4:	00746e69 	0x746e69
     cf8:	c7050802 	lwc1	$f5,2050($24)
     cfc:	04000001 	bltz	$0,d04 <__start-0x7ffff2fc>
     d00:	00000197 	0x197
     d04:	00512e02 	0x512e02
     d08:	41050000 	0x41050000
     d0c:	02000000 	0x2000000
     d10:	013e0801 	0x13e0801
     d14:	e5040000 	swc1	$f4,0($8)
     d18:	02000001 	movf	$0,$16,$fcc0
     d1c:	00006331 	tgeu	$0,$0,0x18c
     d20:	07020200 	bltzl	$24,1524 <__start-0x7fffeadc>
     d24:	00000151 	0x151
     d28:	0001ee04 	0x1ee04
     d2c:	75340200 	jalx	4d00800 <__start-0x7b2ff800>
     d30:	02000000 	0x2000000
     d34:	018a0704 	0x18a0704
     d38:	08020000 	j	80000 <__start-0x7ff80000>
     d3c:	00018007 	srav	$16,$1,$0
     d40:	07040200 	0x7040200
     d44:	00000185 	0x185
     d48:	0005bf06 	0x5bf06
     d4c:	06031000 	bgezl	$16,4d50 <__start-0x7fffb2b0>
     d50:	00000109 	0x109
     d54:	00043f07 	0x43f07
     d58:	6a0d0300 	0x6a0d0300
     d5c:	00000000 	sll	$0,$0,0x0
     d60:	00068907 	0x68907
     d64:	6a0e0300 	0x6a0e0300
     d68:	04000000 	bltz	$0,d6c <__start-0x7ffff294>
     d6c:	00002a07 	0x2a07
     d70:	6a0f0300 	0x6a0f0300
     d74:	08000000 	j	0 <__start-0x80000000>
     d78:	00017907 	0x17907
     d7c:	6a100300 	0x6a100300
     d80:	0c000000 	jal	0 <__start-0x80000000>
     d84:	0005bf08 	0x5bf08
     d88:	b4080300 	0xb4080300
     d8c:	d9000006 	ldc2	$0,6($8)
     d90:	f3000000 	0xf3000000
     d94:	09000000 	j	4000000 <__start-0x7c000000>
     d98:	0000010e 	0x10e
     d9c:	00006a0a 	0x6a0a
     da0:	006a0a00 	0x6a0a00
     da4:	6a0a0000 	0x6a0a0000
     da8:	0a000000 	j	8000000 <__start-0x78000000>
     dac:	0000006a 	0x6a
     db0:	01d50b00 	0x1d50b00
     db4:	12030000 	beq	$16,$3,db8 <__start-0x7ffff248>
     db8:	0000061e 	0x61e
     dbc:	00000102 	srl	$0,$0,0x4
     dc0:	00010e09 	0x10e09
     dc4:	05000000 	bltz	$8,dc8 <__start-0x7ffff238>
     dc8:	0000008a 	0x8a
     dcc:	008a040c 	syscall	0x22810
     dd0:	140d0000 	bne	$0,$13,dd4 <__start-0x7ffff22c>
     dd4:	98000006 	lwr	$0,6($0)
     dd8:	5b1d0301 	0x5b1d0301
     ddc:	07000001 	bltz	$24,de4 <__start-0x7ffff21c>
     de0:	000005f4 	teq	$0,$0,0x17
     de4:	006a2103 	0x6a2103
     de8:	07000000 	bltz	$24,dec <__start-0x7ffff214>
     dec:	000005c8 	0x5c8
     df0:	00412303 	0x412303
     df4:	07040000 	0x7040000
     df8:	00000695 	0x695
     dfc:	01602603 	0x1602603
     e00:	0b080000 	j	c200000 <__start-0x73e00000>
     e04:	00000614 	0x614
     e08:	06771f03 	0x6771f03
     e0c:	01540000 	0x1540000
     e10:	70090000 	madd	$0,$9
     e14:	00000001 	movf	$0,$0,$fcc0
     e18:	01140500 	0x1140500
     e1c:	8a0e0000 	lwl	$14,0($16)
     e20:	70000000 	madd	$0,$0
     e24:	0f000001 	jal	c000004 <__start-0x73fffffc>
     e28:	00000075 	0x75
     e2c:	040c0018 	teqi	$0,24
     e30:	00000114 	0x114
     e34:	64747310 	0x64747310
     e38:	11000400 	beqz	$8,1e3c <__start-0x7fffe1c4>
     e3c:	01760301 	0x1760301
     e40:	ac120000 	sw	$18,0($0)
     e44:	01000005 	0x1000005
     e48:	00065d77 	0x65d77
     e4c:	00006a00 	sll	$13,$0,0x8
     e50:	001da000 	sll	$20,$29,0x0
     e54:	00017880 	sll	$15,$1,0x2
     e58:	ec9c0100 	swc3	$28,256($4)
     e5c:	13000001 	beqz	$24,e64 <__start-0x7ffff19c>
     e60:	00706972 	tlt	$3,$16,0x1a5
     e64:	01ec7701 	0x1ec7701
     e68:	91020000 	lbu	$2,0($8)
     e6c:	056c1400 	teqi	$11,5120
     e70:	77010000 	jalx	c040000 <__start-0x73fc0000>
     e74:	000001f2 	tlt	$0,$0,0x7
     e78:	15049102 	bne	$8,$4,fffe5284 <_bss_end+0x7ffe2a54>
     e7c:	80001dfc 	lb	$0,7676($0)
     e80:	000000ec 	0xec
     e84:	01006916 	0x1006916
     e88:	0000337e 	0x337e
     e8c:	60910200 	0x60910200
     e90:	001e1815 	0x1e1815
     e94:	0000b080 	sll	$22,$0,0x2
     e98:	06351700 	0x6351700
     e9c:	80010000 	lb	$1,0($0)
     ea0:	0000008a 	0x8a
     ea4:	00649102 	0x649102
     ea8:	040c0000 	teqi	$0,0
     eac:	0000015b 	0x15b
     eb0:	0041040c 	syscall	0x10410
     eb4:	a9180000 	swl	$24,0($8)
     eb8:	01000005 	0x1000005
     ebc:	0005ff2e 	0x5ff2e
     ec0:	00035100 	sll	$10,$3,0x4
     ec4:	001a8000 	sll	$16,$26,0x0
     ec8:	00032080 	sll	$4,$3,0x2
     ecc:	519c0100 	beql	$12,$28,12d0 <__start-0x7fffed30>
     ed0:	14000003 	bnez	$0,ee0 <__start-0x7ffff120>
     ed4:	0000016d 	0x16d
     ed8:	03582e01 	0x3582e01
     edc:	91020000 	lbu	$2,0($8)
     ee0:	656c1300 	0x656c1300
     ee4:	2e01006e 	sltiu	$1,$16,110
     ee8:	0000006a 	0x6a
     eec:	14049102 	bne	$0,$4,fffe52f8 <_bss_end+0x7ffe2ac8>
     ef0:	00000433 	tltu	$0,$0,0x10
     ef4:	01702e01 	0x1702e01
     ef8:	91020000 	lbu	$2,0($8)
     efc:	06a81708 	tgei	$21,5896
     f00:	30010000 	andi	$1,$0,0x0
     f04:	00000033 	tltu	$0,$0
     f08:	174c9102 	bne	$26,$12,fffe5314 <_bss_end+0x7ffe2ae4>
     f0c:	000005db 	0x5db
     f10:	035e3601 	0x35e3601
     f14:	91020000 	lbu	$2,0($8)
     f18:	06551750 	0x6551750
     f1c:	38010000 	xori	$1,$0,0x0
     f20:	00000033 	tltu	$0,$0
     f24:	17549102 	bne	$26,$20,fffe5330 <_bss_end+0x7ffe2b00>
     f28:	000005e5 	0x5e5
     f2c:	00333901 	0x333901
     f30:	91020000 	lbu	$2,0($8)
     f34:	1b7c1958 	0x1b7c1958
     f38:	02088000 	0x2088000
     f3c:	02c20000 	0x2c20000
     f40:	ea170000 	swc2	$23,0($16)
     f44:	01000005 	0x1000005
     f48:	00003347 	0x3347
     f4c:	48910200 	0x48910200
     f50:	001b9815 	0x1b9815
     f54:	0001d880 	sll	$27,$1,0x2
     f58:	06351700 	0x6351700
     f5c:	49010000 	bc2t	f60 <__start-0x7ffff0a0>
     f60:	00000364 	0x364
     f64:	175c9102 	bne	$26,$28,fffe5370 <_bss_end+0x7ffe2b40>
     f68:	0000068e 	0x68e
     f6c:	00334f01 	0x334f01
     f70:	91020000 	lbu	$2,0($8)
     f74:	1d201a60 	bgtz	$9,78f8 <__start-0x7fff8708>
     f78:	00508000 	0x508000
     f7c:	00000000 	sll	$0,$0,0x0
     f80:	0005d01b 	0x5d01b
     f84:	5d011000 	0x5d011000
     f88:	00063307 	0x63307
     f8c:	8a5d0100 	lwl	$29,256($18)
     f90:	00000000 	sll	$0,$0,0x0
     f94:	0005b51c 	0x5b51c
     f98:	0002e300 	sll	$28,$2,0xc
     f9c:	0002f400 	sll	$30,$2,0x10
     fa0:	02e80900 	0x2e80900
     fa4:	040c0000 	teqi	$0,0
     fa8:	000002c2 	srl	$0,$0,0xb
     fac:	00003309 	0x3309
     fb0:	9d1d0000 	0x9d1d0000
     fb4:	51000006 	beqzl	$8,fd0 <__start-0x7ffff030>
     fb8:	1f000003 	bgtz	$24,fc8 <__start-0x7ffff038>
     fbc:	b0000003 	0xb0000003
     fc0:	d0800019 	0xd0800019
     fc4:	01000000 	0x1000000
     fc8:	00031f9c 	0x31f9c
     fcc:	1a040c00 	0x1a040c00
     fd0:	05000003 	bltz	$8,fe0 <__start-0x7ffff020>
     fd4:	0000030f 	sync	0xc
     fd8:	0002c205 	0x2c205
     fdc:	063e1e00 	0x63e1e00
     fe0:	03150000 	0x3150000
     fe4:	91020000 	lbu	$2,0($8)
     fe8:	06351f00 	0x6351f00
     fec:	01090000 	0x1090000
     ff0:	91030000 	lbu	$3,0($8)
     ff4:	f4150600 	sdc1	$f21,1536($0)
     ff8:	70800019 	0x70800019
     ffc:	16000000 	bnez	$16,1000 <__start-0x7ffff000>
    1000:	60010069 	0x60010069
    1004:	00000033 	tltu	$0,$0
    1008:	00709102 	0x709102
    100c:	02000000 	0x2000000
    1010:	05a40201 	0x5a40201
    1014:	040c0000 	teqi	$0,0
    1018:	0000004c 	syscall	0x1
    101c:	01140420 	0x1140420
    1020:	04200000 	bltz	$1,1024 <__start-0x7fffefdc>
    1024:	0000008a 	0x8a
    1028:	00022d00 	sll	$5,$2,0x14
    102c:	64000400 	0x64000400
    1030:	04000006 	bltz	$0,104c <__start-0x7fffefb4>
    1034:	00003201 	0x3201
    1038:	06dc0400 	0x6dc0400
    103c:	02020000 	0x2020000
    1040:	01500000 	0x1500000
    1044:	00000000 	sll	$0,$0,0x0
    1048:	073f0000 	0x73f0000
    104c:	01020000 	0x1020000
    1050:	00014006 	srlv	$8,$1,$0
    1054:	05020200 	bltzl	$8,1858 <__start-0x7fffe7a8>
    1058:	000001db 	0x1db
    105c:	69050403 	0x69050403
    1060:	0200746e 	0x200746e
    1064:	01c70508 	0x1c70508
    1068:	97040000 	lhu	$4,0($24)
    106c:	03000001 	movf	$0,$24,$fcc0
    1070:	00004c2e 	0x4c2e
    1074:	08010200 	j	40800 <__start-0x7ffbf800>
    1078:	0000013e 	0x13e
    107c:	51070202 	beql	$8,$7,1888 <__start-0x7fffe778>
    1080:	04000001 	bltz	$0,1088 <__start-0x7fffef78>
    1084:	000001ee 	0x1ee
    1088:	00653403 	0x653403
    108c:	04020000 	bltzl	$0,1090 <__start-0x7fffef70>
    1090:	00018a07 	0x18a07
    1094:	07080200 	tgei	$24,512
    1098:	00000180 	sll	$0,$0,0x6
    109c:	85070402 	lh	$7,1026($8)
    10a0:	05000001 	bltz	$8,10a8 <__start-0x7fffef58>
    10a4:	000005bf 	0x5bf
    10a8:	f9060110 	sdc2	$6,272($8)
    10ac:	06000000 	bltz	$16,10b0 <__start-0x7fffef50>
    10b0:	0000043f 	0x43f
    10b4:	005a0d01 	0x5a0d01
    10b8:	06000000 	bltz	$16,10bc <__start-0x7fffef44>
    10bc:	00000689 	0x689
    10c0:	005a0e01 	0x5a0e01
    10c4:	06040000 	0x6040000
    10c8:	0000002a 	slt	$0,$0,$0
    10cc:	005a0f01 	0x5a0f01
    10d0:	06080000 	tgei	$16,0
    10d4:	00000179 	0x179
    10d8:	005a1001 	0x5a1001
    10dc:	070c0000 	teqi	$24,0
    10e0:	000005bf 	0x5bf
    10e4:	06b40801 	0x6b40801
    10e8:	00c90000 	0xc90000
    10ec:	00e30000 	0xe30000
    10f0:	f9080000 	sdc2	$8,0($8)
    10f4:	09000000 	j	4000000 <__start-0x7c000000>
    10f8:	0000005a 	0x5a
    10fc:	00005a09 	0x5a09
    1100:	005a0900 	0x5a0900
    1104:	5a090000 	0x5a090000
    1108:	00000000 	sll	$0,$0,0x0
    110c:	0001d50a 	0x1d50a
    1110:	1e120100 	0x1e120100
    1114:	f2000006 	0xf2000006
    1118:	08000000 	j	0 <__start-0x80000000>
    111c:	000000f9 	0xf9
    1120:	040b0000 	tltiu	$0,0
    1124:	0000007a 	0x7a
    1128:	0000f90c 	syscall	0x3e4
    112c:	06140d00 	0x6140d00
    1130:	01980000 	0x1980000
    1134:	014b1d01 	0x14b1d01
    1138:	f4060000 	sdc1	$f6,0($0)
    113c:	01000005 	0x1000005
    1140:	00005a21 	0x5a21
    1144:	c8060000 	lwc2	$6,0($0)
    1148:	01000005 	0x1000005
    114c:	00004123 	0x4123
    1150:	95060400 	lhu	$6,1024($8)
    1154:	01000006 	srlv	$0,$0,$8
    1158:	00014b26 	0x14b26
    115c:	140a0800 	bne	$0,$10,3160 <__start-0x7fffcea0>
    1160:	01000006 	srlv	$0,$0,$8
    1164:	0006771f 	0x6771f
    1168:	00014400 	sll	$8,$1,0x10
    116c:	015b0800 	0x15b0800
    1170:	00000000 	sll	$0,$0,0x0
    1174:	00007a0e 	0x7a0e
    1178:	00015b00 	sll	$11,$1,0xc
    117c:	00650f00 	0x650f00
    1180:	00180000 	sll	$0,$24,0x0
    1184:	0104040b 	0x104040b
    1188:	5b0c0000 	0x5b0c0000
    118c:	10000001 	beqz	$0,1194 <__start-0x7fffee6c>
    1190:	00000135 	0x135
    1194:	76000302 	jalx	8000c08 <__start-0x77fff3f8>
    1198:	80000001 	lb	$0,1($0)
    119c:	11000001 	beqz	$8,11a4 <__start-0x7fffee5c>
    11a0:	0000014c 	syscall	0x5
    11a4:	00000161 	0x161
    11a8:	01661200 	0x1661200
    11ac:	06e40000 	0x6e40000
    11b0:	019f0000 	0x19f0000
    11b4:	1f7c0000 	0x1f7c0000
    11b8:	00b48000 	0xb48000
    11bc:	9c010000 	0x9c010000
    11c0:	0000019f 	0x19f
    11c4:	000001a8 	0x1a8
    11c8:	00017613 	0x17613
    11cc:	00910200 	0x910200
    11d0:	00b61400 	0xb61400
    11d4:	b6020000 	0xb6020000
    11d8:	ec000001 	swc3	$0,1($0)
    11dc:	11000001 	beqz	$8,11e4 <__start-0x7fffee1c>
    11e0:	0000014c 	syscall	0x5
    11e4:	000000ff 	0xff
    11e8:	00043f15 	0x43f15
    11ec:	5a080100 	0x5a080100
    11f0:	15000000 	bnez	$8,11f4 <__start-0x7fffee0c>
    11f4:	00000689 	0x689
    11f8:	005a0801 	0x5a0801
    11fc:	2a150000 	slti	$21,$16,0
    1200:	01000000 	0x1000000
    1204:	00005a08 	0x5a08
    1208:	01791500 	0x1791500
    120c:	08010000 	j	40000 <__start-0x7ffc0000>
    1210:	0000005a 	0x5a
    1214:	01a81600 	0x1a81600
    1218:	06c80000 	tgei	$22,0
    121c:	02070000 	0x2070000
    1220:	1f180000 	0x1f180000
    1224:	00648000 	0x648000
    1228:	9c010000 	0x9c010000
    122c:	00000207 	0x207
    1230:	0001b613 	0x1b613
    1234:	00910200 	0x910200
    1238:	0001bf13 	0x1bf13
    123c:	04910200 	bgezal	$4,1a40 <__start-0x7fffe5c0>
    1240:	0001ca13 	0x1ca13
    1244:	08910200 	j	2440800 <__start-0x7dbbf800>
    1248:	0001d513 	0x1d513
    124c:	0c910200 	jal	2440800 <__start-0x7dbbf800>
    1250:	0001e013 	0x1e013
    1254:	10910200 	beq	$4,$17,1a58 <__start-0x7fffe5a8>
    1258:	01280000 	0x1280000
    125c:	00040000 	sll	$0,$4,0x0
    1260:	0000078f 	sync	0x1e
    1264:	00320104 	0x320104
    1268:	6c040000 	0x6c040000
    126c:	02000007 	srav	$0,$0,$16
    1270:	68000002 	0x68000002
    1274:	00000001 	movf	$0,$0,$fcc0
    1278:	e6000000 	swc1	$f0,0($16)
    127c:	02000007 	srav	$0,$0,$16
    1280:	01400601 	0x1400601
    1284:	02020000 	0x2020000
    1288:	0001db05 	0x1db05
    128c:	05040300 	0x5040300
    1290:	00746e69 	0x746e69
    1294:	c7050802 	lwc1	$f5,2050($24)
    1298:	04000001 	bltz	$0,12a0 <__start-0x7fffed60>
    129c:	00000197 	0x197
    12a0:	004c2e02 	0x4c2e02
    12a4:	01020000 	0x1020000
    12a8:	00013e08 	0x13e08
    12ac:	07020200 	bltzl	$24,1ab0 <__start-0x7fffe550>
    12b0:	00000151 	0x151
    12b4:	0001ee04 	0x1ee04
    12b8:	6f340200 	0x6f340200
    12bc:	05000000 	bltz	$8,12c0 <__start-0x7fffed40>
    12c0:	0000005a 	0x5a
    12c4:	00005a06 	0x5a06
    12c8:	07040200 	0x7040200
    12cc:	0000018a 	0x18a
    12d0:	80070802 	lb	$7,2050($0)
    12d4:	02000001 	movf	$0,$16,$fcc0
    12d8:	01850704 	0x1850704
    12dc:	8b070000 	lwl	$7,0($24)
    12e0:	01000005 	0x1000005
    12e4:	00006505 	0x6505
    12e8:	4c030500 	0x4c030500
    12ec:	07800021 	bltz	$28,1374 <__start-0x7fffec8c>
    12f0:	00000759 	0x759
    12f4:	00650601 	0x650601
    12f8:	03050000 	0x3050000
    12fc:	80002150 	lb	$0,8528($0)
    1300:	00071808 	0x71808
    1304:	2c150100 	sltiu	$21,$0,256
    1308:	bf000007 	cache	0x0,7($24)
    130c:	ec000000 	swc3	$0,0($0)
    1310:	38800020 	xori	$0,$4,0x20
    1314:	01000000 	0x1000000
    1318:	0201029c 	0x201029c
    131c:	000005a4 	0x5a4
    1320:	00074509 	0x74509
    1324:	fc080100 	sdc3	$8,256($0)
    1328:	30000006 	andi	$0,$0,0x6
    132c:	bc800020 	cache	0x0,32($4)
    1330:	01000000 	0x1000000
    1334:	0001259c 	0x1259c
    1338:	70690a00 	0x70690a00
    133c:	5a080100 	0x5a080100
    1340:	02000000 	0x2000000
    1344:	2a0b0091 	slti	$11,$16,145
    1348:	01000000 	0x1000000
    134c:	00005a08 	0x5a08
    1350:	04910200 	bgezal	$4,1b54 <__start-0x7fffe4ac>
    1354:	6e656c0a 	0x6e656c0a
    1358:	41080100 	0x41080100
    135c:	02000000 	0x2000000
    1360:	790b0891 	0x790b0891
    1364:	01000007 	srav	$0,$0,$8
    1368:	00004108 	0x4108
    136c:	0c910200 	jal	2440800 <__start-0x7dbbf800>
    1370:	0006f607 	0x6f607
    1374:	250f0100 	addiu	$15,$8,256
    1378:	02000001 	movf	$0,$16,$fcc0
    137c:	0c007091 	jal	1c244 <__start-0x7ffe3dbc>
    1380:	00006a04 	0x6a04
	...

Disassembly of section .debug_abbrev:

00000000 <.debug_abbrev>:
   0:	25011101 	addiu	$1,$8,4353
   4:	030b130e 	0x30b130e
   8:	550e1b0e 	bnel	$8,$14,6c44 <__start-0x7fff93bc>
   c:	10011117 	beq	$0,$1,446c <__start-0x7fffbb94>
  10:	02000017 	0x2000017
  14:	0b0b0024 	j	c2c0090 <__start-0x73d3ff70>
  18:	0e030b3e 	jal	80c2cf8 <__start-0x77f3d308>
  1c:	24030000 	addiu	$3,$0,0
  20:	3e0b0b00 	0x3e0b0b00
  24:	0008030b 	0x8030b
  28:	00160400 	sll	$0,$22,0x10
  2c:	0b3a0e03 	j	ce8380c <__start-0x7317c7f4>
  30:	13490b3b 	beq	$26,$9,2d20 <__start-0x7fffd2e0>
  34:	13050000 	beq	$24,$5,38 <__start-0x7fffffc8>
  38:	0b0e0301 	j	c380c04 <__start-0x73c7f3fc>
  3c:	3b0b3a0b 	xori	$11,$24,0x3a0b
  40:	0013010b 	0x13010b
  44:	000d0600 	sll	$0,$13,0x18
  48:	0b3a0e03 	j	ce8380c <__start-0x7317c7f4>
  4c:	13490b3b 	beq	$26,$9,2d3c <__start-0x7fffd2c4>
  50:	00000b38 	0xb38
  54:	03000d07 	0x3000d07
  58:	3b0b3a08 	xori	$11,$24,0x3a08
  5c:	3813490b 	xori	$19,$0,0x490b
  60:	0800000b 	j	2c <__start-0x7fffffd4>
  64:	193f012e 	0x193f012e
  68:	0b3a0e03 	j	ce8380c <__start-0x7317c7f4>
  6c:	0e6e0b3b 	jal	9b82cec <__start-0x7647d314>
  70:	1364193c 	beq	$27,$4,6564 <__start-0x7fff9a9c>
  74:	00001301 	0x1301
  78:	49000509 	bc2f	14a0 <__start-0x7fffeb60>
  7c:	00193413 	0x193413
  80:	00050a00 	sll	$1,$5,0x8
  84:	00001349 	0x1349
  88:	3f012e0b 	0x3f012e0b
  8c:	3a0e0319 	xori	$14,$16,0x319
  90:	6e0b3b0b 	0x6e0b3b0b
  94:	64193c0e 	0x64193c0e
  98:	0c000013 	jal	4c <__start-0x7fffffb4>
  9c:	0b0b000f 	j	c2c003c <__start-0x73d3ffc4>
  a0:	00001349 	0x1349
  a4:	4900260d 	bc2f	98dc <__start-0x7fff6724>
  a8:	0e000013 	jal	800004c <__start-0x77ffffb4>
  ac:	193f012e 	0x193f012e
  b0:	0b3a0e03 	j	ce8380c <__start-0x7317c7f4>
  b4:	13490b3b 	beq	$26,$9,2da4 <__start-0x7fffd25c>
  b8:	06120111 	bltzall	$16,500 <__start-0x7ffffb00>
  bc:	42961840 	c0	0x961840
  c0:	00130119 	0x130119
  c4:	00340f00 	0x340f00
  c8:	0b3a0e03 	j	ce8380c <__start-0x7317c7f4>
  cc:	13490b3b 	beq	$26,$9,2dbc <__start-0x7fffd244>
  d0:	00001802 	srl	$3,$0,0x0
  d4:	11010b10 	beq	$8,$1,2d18 <__start-0x7fffd2e8>
  d8:	01061201 	0x1061201
  dc:	11000013 	beqz	$8,12c <__start-0x7ffffed4>
  e0:	08030034 	j	c00d0 <__start-0x7ff3ff30>
  e4:	0b3b0b3a 	j	cec2ce8 <__start-0x7313d318>
  e8:	18021349 	0x18021349
  ec:	0b120000 	j	c480000 <__start-0x73b80000>
  f0:	12011101 	beq	$16,$1,44f8 <__start-0x7fffbb08>
  f4:	13000006 	beqz	$24,110 <__start-0x7ffffef0>
  f8:	13490101 	beq	$26,$9,500 <__start-0x7ffffb00>
  fc:	00001301 	0x1301
 100:	49002114 	bc2f	8554 <__start-0x7fff7aac>
 104:	000b2f13 	0xb2f13
 108:	012e1500 	0x12e1500
 10c:	0b201347 	j	c804d1c <__start-0x737fb2e4>
 110:	13011364 	beq	$24,$1,4ea4 <__start-0x7fffb15c>
 114:	05160000 	0x5160000
 118:	490e0300 	bc2fl	$cc3,d1c <__start-0x7ffff2e4>
 11c:	00193413 	0x193413
 120:	00051700 	sll	$2,$5,0x1c
 124:	0b3a0e03 	j	ce8380c <__start-0x7317c7f4>
 128:	13490b3b 	beq	$26,$9,2e18 <__start-0x7fffd1e8>
 12c:	05180000 	0x5180000
 130:	3a080300 	xori	$8,$16,0x300
 134:	490b3b0b 	bc2tl	$cc2,ed64 <__start-0x7fff129c>
 138:	19000013 	blez	$8,188 <__start-0x7ffffe78>
 13c:	1331012e 	beq	$25,$17,5f8 <__start-0x7ffffa08>
 140:	13640e6e 	beq	$27,$4,3afc <__start-0x7fffc504>
 144:	06120111 	bltzall	$16,58c <__start-0x7ffffa74>
 148:	13641840 	beq	$27,$4,624c <__start-0x7fff9db4>
 14c:	00194297 	0x194297
 150:	00051a00 	sll	$3,$5,0x8
 154:	18021331 	0x18021331
 158:	01000000 	0x1000000
 15c:	0e250111 	jal	8940444 <__start-0x776bfbbc>
 160:	0e030b13 	jal	80c2c4c <__start-0x77f3d3b4>
 164:	17550e1b 	bne	$26,$21,39d4 <__start-0x7fffc62c>
 168:	17100111 	bne	$24,$16,5b0 <__start-0x7ffffa50>
 16c:	24020000 	addiu	$2,$0,0
 170:	3e0b0b00 	0x3e0b0b00
 174:	000e030b 	0xe030b
 178:	00240300 	0x240300
 17c:	0b3e0b0b 	j	cf82c2c <__start-0x7307d3d4>
 180:	00000803 	sra	$1,$0,0x0
 184:	03001604 	0x3001604
 188:	3b0b3a0e 	xori	$11,$24,0x3a0e
 18c:	0013490b 	0x13490b
 190:	00350500 	0x350500
 194:	00001349 	0x1349
 198:	03003406 	0x3003406
 19c:	3b0b3a0e 	xori	$11,$24,0x3a0e
 1a0:	3f13490b 	0x3f13490b
 1a4:	00180219 	0x180219
 1a8:	000f0700 	sll	$0,$15,0x1c
 1ac:	13490b0b 	beq	$26,$9,2ddc <__start-0x7fffd224>
 1b0:	2e080000 	sltiu	$8,$16,0
 1b4:	03193f01 	0x3193f01
 1b8:	3b0b3a0e 	xori	$11,$24,0x3a0e
 1bc:	1201110b 	beq	$16,$1,45ec <__start-0x7fffba14>
 1c0:	96184006 	lhu	$24,16390($16)
 1c4:	13011942 	beq	$24,$1,66d0 <__start-0x7fff9930>
 1c8:	05090000 	tgeiu	$8,0
 1cc:	3a080300 	xori	$8,$16,0x300
 1d0:	490b3b0b 	bc2tl	$cc2,ee00 <__start-0x7fff1200>
 1d4:	00180213 	0x180213
 1d8:	002e0a00 	0x2e0a00
 1dc:	0e03193f 	jal	80c64fc <__start-0x77f39b04>
 1e0:	0b3b0b3a 	j	cec2ce8 <__start-0x7313d318>
 1e4:	06120111 	bltzall	$16,62c <__start-0x7ffff9d4>
 1e8:	42961840 	c0	0x961840
 1ec:	0b000019 	j	c000064 <__start-0x73ffff9c>
 1f0:	08030034 	j	c00d0 <__start-0x7ff3ff30>
 1f4:	0b3b0b3a 	j	cec2ce8 <__start-0x7313d318>
 1f8:	18021349 	0x18021349
 1fc:	340c0000 	ori	$12,$0,0x0
 200:	3a0e0300 	xori	$14,$16,0x300
 204:	490b3b0b 	bc2tl	$cc2,ee34 <__start-0x7fff11cc>
 208:	00180213 	0x180213
 20c:	010b0d00 	0x10b0d00
 210:	06120111 	bltzall	$16,658 <__start-0x7ffff9a8>
 214:	260e0000 	addiu	$14,$16,0
 218:	00134900 	sll	$9,$19,0x4
 21c:	012e0f00 	0x12e0f00
 220:	0e03193f 	jal	80c64fc <__start-0x77f39b04>
 224:	0b3b0b3a 	j	cec2ce8 <__start-0x7313d318>
 228:	01111349 	0x1111349
 22c:	18400612 	blez	$2,1a78 <__start-0x7fffe588>
 230:	01194296 	0x1194296
 234:	10000013 	beqz	$0,284 <__start-0x7ffffd7c>
 238:	193f002e 	0x193f002e
 23c:	0b3a0e03 	j	ce8380c <__start-0x7317c7f4>
 240:	13490b3b 	beq	$26,$9,2f30 <__start-0x7fffd0d0>
 244:	06120111 	bltzall	$16,68c <__start-0x7ffff974>
 248:	42971840 	c0	0x971840
 24c:	11000019 	beqz	$8,2b4 <__start-0x7ffffd4c>
 250:	193f012e 	0x193f012e
 254:	0b3a0e03 	j	ce8380c <__start-0x7317c7f4>
 258:	01110b3b 	0x1110b3b
 25c:	18400612 	blez	$2,1aa8 <__start-0x7fffe558>
 260:	00194297 	0x194297
 264:	11010000 	beq	$8,$1,268 <__start-0x7ffffd98>
 268:	130e2501 	beq	$24,$14,9670 <__start-0x7fff6990>
 26c:	1b0e030b 	0x1b0e030b
 270:	1117550e 	beq	$8,$23,156ac <__start-0x7ffea954>
 274:	00171001 	0x171001
 278:	00240200 	0x240200
 27c:	0b3e0b0b 	j	cf82c2c <__start-0x7307d3d4>
 280:	00000e03 	sra	$1,$0,0x18
 284:	0b002403 	j	c00900c <__start-0x73ff6ff4>
 288:	030b3e0b 	0x30b3e0b
 28c:	04000008 	bltz	$0,2b0 <__start-0x7ffffd50>
 290:	0e030016 	jal	80c0058 <__start-0x77f3ffa8>
 294:	0b3b0b3a 	j	cec2ce8 <__start-0x7313d318>
 298:	00001349 	0x1349
 29c:	49002605 	bc2f	9ab4 <__start-0x7fff654c>
 2a0:	06000013 	bltz	$16,2f0 <__start-0x7ffffd10>
 2a4:	193f012e 	0x193f012e
 2a8:	0b3a0803 	j	ce8200c <__start-0x7317dff4>
 2ac:	0e6e0b3b 	jal	9b82cec <__start-0x7647d314>
 2b0:	06120111 	bltzall	$16,6f8 <__start-0x7ffff908>
 2b4:	42971840 	c0	0x971840
 2b8:	00130119 	0x130119
 2bc:	00050700 	sll	$0,$5,0x1c
 2c0:	0b3a0803 	j	ce8200c <__start-0x7317dff4>
 2c4:	13490b3b 	beq	$26,$9,2fb4 <__start-0x7fffd04c>
 2c8:	00001802 	srl	$3,$0,0x0
 2cc:	0b001008 	j	c004020 <__start-0x73ffbfe0>
 2d0:	0013490b 	0x13490b
 2d4:	012e0900 	0x12e0900
 2d8:	0e03193f 	jal	80c64fc <__start-0x77f39b04>
 2dc:	0b3b0b3a 	j	cec2ce8 <__start-0x7313d318>
 2e0:	13490e6e 	beq	$26,$9,3c9c <__start-0x7fffc364>
 2e4:	06120111 	bltzall	$16,72c <__start-0x7ffff8d4>
 2e8:	42971840 	c0	0x971840
 2ec:	00130119 	0x130119
 2f0:	000f0a00 	sll	$1,$15,0x8
 2f4:	13490b0b 	beq	$26,$9,2f24 <__start-0x7fffd0dc>
 2f8:	2e0b0000 	sltiu	$11,$16,0
 2fc:	03193f01 	0x3193f01
 300:	3b0b3a08 	xori	$11,$24,0x3a08
 304:	490e6e0b 	bc2fl	$cc3,1bb34 <__start-0x7ffe44cc>
 308:	12011113 	beq	$16,$1,4758 <__start-0x7fffb8a8>
 30c:	97184006 	lhu	$24,16390($24)
 310:	13011942 	beq	$24,$1,681c <__start-0x7fff97e4>
 314:	2e0c0000 	sltiu	$12,$16,0
 318:	03193f01 	0x3193f01
 31c:	3b0b3a0e 	xori	$11,$24,0x3a0e
 320:	110e6e0b 	beq	$8,$14,1bb50 <__start-0x7ffe44b0>
 324:	40061201 	0x40061201
 328:	19429718 	0x19429718
 32c:	00001301 	0x1301
 330:	0300340d 	break	0x300,0xd0
 334:	3b0b3a0e 	xori	$11,$24,0x3a0e
 338:	0213490b 	0x213490b
 33c:	0e000018 	jal	8000060 <__start-0x77ffffa0>
 340:	0b0b000f 	j	c2c003c <__start-0x73d3ffc4>
 344:	340f0000 	ori	$15,$0,0x0
 348:	3a080300 	xori	$8,$16,0x300
 34c:	490b3b0b 	bc2tl	$cc2,ef7c <__start-0x7fff1084>
 350:	00180213 	0x180213
 354:	012e1000 	0x12e1000
 358:	0e03193f 	jal	80c64fc <__start-0x77f39b04>
 35c:	0b3b0b3a 	j	cec2ce8 <__start-0x7313d318>
 360:	01110e6e 	0x1110e6e
 364:	18400612 	blez	$2,1bb0 <__start-0x7fffe450>
 368:	01194296 	0x1194296
 36c:	11000013 	beqz	$8,3bc <__start-0x7ffffc44>
 370:	0111010b 	0x111010b
 374:	00000612 	0x612
 378:	3f012e12 	0x3f012e12
 37c:	3a0e0319 	xori	$14,$16,0x319
 380:	6e0b3b0b 	0x6e0b3b0b
 384:	1113490e 	beq	$8,$19,127c0 <__start-0x7ffed840>
 388:	40061201 	0x40061201
 38c:	19429618 	0x19429618
 390:	00001301 	0x1301
 394:	03000513 	0x3000513
 398:	3b0b3a0e 	xori	$11,$24,0x3a0e
 39c:	0213490b 	0x213490b
 3a0:	14000018 	bnez	$0,404 <__start-0x7ffffbfc>
 3a4:	193f012e 	0x193f012e
 3a8:	0b3a0803 	j	ce8200c <__start-0x7317dff4>
 3ac:	0e6e0b3b 	jal	9b82cec <__start-0x7647d314>
 3b0:	06120111 	bltzall	$16,7f8 <__start-0x7ffff808>
 3b4:	42961840 	c0	0x961840
 3b8:	00130119 	0x130119
 3bc:	11010000 	beq	$8,$1,3c0 <__start-0x7ffffc40>
 3c0:	130e2501 	beq	$24,$14,97c8 <__start-0x7fff6838>
 3c4:	1b0e030b 	0x1b0e030b
 3c8:	1117550e 	beq	$8,$23,15804 <__start-0x7ffea7fc>
 3cc:	00171001 	0x171001
 3d0:	00240200 	0x240200
 3d4:	0b3e0b0b 	j	cf82c2c <__start-0x7307d3d4>
 3d8:	00000e03 	sra	$1,$0,0x18
 3dc:	0b002403 	j	c00900c <__start-0x73ff6ff4>
 3e0:	030b3e0b 	0x30b3e0b
 3e4:	04000008 	bltz	$0,408 <__start-0x7ffffbf8>
 3e8:	13490026 	beq	$26,$9,484 <__start-0x7ffffb7c>
 3ec:	16050000 	bne	$16,$5,3f0 <__start-0x7ffffc10>
 3f0:	3a0e0300 	xori	$14,$16,0x300
 3f4:	490b3b0b 	bc2tl	$cc2,f024 <__start-0x7fff0fdc>
 3f8:	06000013 	bltz	$16,448 <__start-0x7ffffbb8>
 3fc:	13490035 	beq	$26,$9,4d4 <__start-0x7ffffb2c>
 400:	34070000 	ori	$7,$0,0x0
 404:	3a0e0300 	xori	$14,$16,0x300
 408:	490b3b0b 	bc2tl	$cc2,f038 <__start-0x7fff0fc8>
 40c:	00180213 	0x180213
 410:	00340800 	0x340800
 414:	0b3a0e03 	j	ce8380c <__start-0x7317c7f4>
 418:	13490b3b 	beq	$26,$9,3108 <__start-0x7fffcef8>
 41c:	1802193f 	0x1802193f
 420:	2e090000 	sltiu	$9,$16,0
 424:	03193f01 	0x3193f01
 428:	3b0b3a0e 	xori	$11,$24,0x3a0e
 42c:	1201110b 	beq	$16,$1,485c <__start-0x7fffb7a4>
 430:	96184006 	lhu	$24,16390($16)
 434:	13011942 	beq	$24,$1,6940 <__start-0x7fff96c0>
 438:	050a0000 	tlti	$8,0
 43c:	3a0e0300 	xori	$14,$16,0x300
 440:	490b3b0b 	bc2tl	$cc2,f070 <__start-0x7fff0f90>
 444:	00180213 	0x180213
 448:	010b0b00 	0x10b0b00
 44c:	06120111 	bltzall	$16,894 <__start-0x7ffff76c>
 450:	340c0000 	ori	$12,$0,0x0
 454:	3a080300 	xori	$8,$16,0x300
 458:	490b3b0b 	bc2tl	$cc2,f088 <__start-0x7fff0f78>
 45c:	00180213 	0x180213
 460:	000f0d00 	sll	$1,$15,0x14
 464:	13490b0b 	beq	$26,$9,3094 <__start-0x7fffcf6c>
 468:	2e0e0000 	sltiu	$14,$16,0
 46c:	03193f01 	0x3193f01
 470:	3b0b3a0e 	xori	$11,$24,0x3a0e
 474:	1113490b 	beq	$8,$19,128a4 <__start-0x7ffed75c>
 478:	40061201 	0x40061201
 47c:	19429618 	0x19429618
 480:	00001301 	0x1301
 484:	0b00100f 	j	c00403c <__start-0x73ffbfc4>
 488:	0013490b 	0x13490b
 48c:	012e1000 	0x12e1000
 490:	0e03193f 	jal	80c64fc <__start-0x77f39b04>
 494:	0b3b0b3a 	j	cec2ce8 <__start-0x7313d318>
 498:	01111349 	0x1111349
 49c:	18400612 	blez	$2,1ce8 <__start-0x7fffe318>
 4a0:	01194297 	0x1194297
 4a4:	00000013 	mtlo	$0
 4a8:	25011101 	addiu	$1,$8,4353
 4ac:	030b130e 	0x30b130e
 4b0:	550e1b0e 	bnel	$8,$14,70ec <__start-0x7fff8f14>
 4b4:	10011117 	beq	$0,$1,4914 <__start-0x7fffb6ec>
 4b8:	02000017 	0x2000017
 4bc:	0b0b0024 	j	c2c0090 <__start-0x73d3ff70>
 4c0:	0e030b3e 	jal	80c2cf8 <__start-0x77f3d308>
 4c4:	24030000 	addiu	$3,$0,0
 4c8:	3e0b0b00 	0x3e0b0b00
 4cc:	0008030b 	0x8030b
 4d0:	00160400 	sll	$0,$22,0x10
 4d4:	0b3a0e03 	j	ce8380c <__start-0x7317c7f4>
 4d8:	13490b3b 	beq	$26,$9,31c8 <__start-0x7fffce38>
 4dc:	26050000 	addiu	$5,$16,0
 4e0:	00134900 	sll	$9,$19,0x4
 4e4:	01130600 	0x1130600
 4e8:	0b0b0e03 	j	c2c380c <__start-0x73d3c7f4>
 4ec:	0b3b0b3a 	j	cec2ce8 <__start-0x7313d318>
 4f0:	00001301 	0x1301
 4f4:	03000d07 	0x3000d07
 4f8:	3b0b3a0e 	xori	$11,$24,0x3a0e
 4fc:	3813490b 	xori	$19,$0,0x490b
 500:	0800000b 	j	2c <__start-0x7fffffd4>
 504:	193f012e 	0x193f012e
 508:	0b3a0e03 	j	ce8380c <__start-0x7317c7f4>
 50c:	0e6e0b3b 	jal	9b82cec <__start-0x7647d314>
 510:	1364193c 	beq	$27,$4,6a04 <__start-0x7fff95fc>
 514:	00001301 	0x1301
 518:	49000509 	bc2f	1940 <__start-0x7fffe6c0>
 51c:	00193413 	0x193413
 520:	00050a00 	sll	$1,$5,0x8
 524:	00001349 	0x1349
 528:	3f012e0b 	0x3f012e0b
 52c:	3a0e0319 	xori	$14,$16,0x319
 530:	6e0b3b0b 	0x6e0b3b0b
 534:	64193c0e 	0x64193c0e
 538:	0c000013 	jal	4c <__start-0x7fffffb4>
 53c:	0b0b000f 	j	c2c003c <__start-0x73d3ffc4>
 540:	00001349 	0x1349
 544:	0301130d 	break	0x301,0x4c
 548:	3a050b0e 	xori	$5,$16,0xb0e
 54c:	010b3b0b 	0x10b3b0b
 550:	0e000013 	jal	800004c <__start-0x77ffffb4>
 554:	13490101 	beq	$26,$9,95c <__start-0x7ffff6a4>
 558:	00001301 	0x1301
 55c:	4900210f 	bc2f	899c <__start-0x7fff7664>
 560:	000b2f13 	0xb2f13
 564:	00391000 	0x391000
 568:	0b3a0803 	j	ce8200c <__start-0x7317dff4>
 56c:	00000b3b 	0xb3b
 570:	3a003a11 	xori	$0,$16,0x3a11
 574:	180b3b0b 	0x180b3b0b
 578:	12000013 	beqz	$16,5c8 <__start-0x7ffffa38>
 57c:	193f012e 	0x193f012e
 580:	0b3a0e03 	j	ce8380c <__start-0x7317c7f4>
 584:	0e6e0b3b 	jal	9b82cec <__start-0x7647d314>
 588:	01111349 	0x1111349
 58c:	18400612 	blez	$2,1dd8 <__start-0x7fffe228>
 590:	01194297 	0x1194297
 594:	13000013 	beqz	$24,5e4 <__start-0x7ffffa1c>
 598:	08030005 	j	c0014 <__start-0x7ff3ffec>
 59c:	0b3b0b3a 	j	cec2ce8 <__start-0x7313d318>
 5a0:	18021349 	0x18021349
 5a4:	05140000 	0x5140000
 5a8:	3a0e0300 	xori	$14,$16,0x300
 5ac:	490b3b0b 	bc2tl	$cc2,f1dc <__start-0x7fff0e24>
 5b0:	00180213 	0x180213
 5b4:	010b1500 	0x10b1500
 5b8:	06120111 	bltzall	$16,a00 <__start-0x7ffff600>
 5bc:	34160000 	ori	$22,$0,0x0
 5c0:	3a080300 	xori	$8,$16,0x300
 5c4:	490b3b0b 	bc2tl	$cc2,f1f4 <__start-0x7fff0e0c>
 5c8:	00180213 	0x180213
 5cc:	00341700 	0x341700
 5d0:	0b3a0e03 	j	ce8380c <__start-0x7317c7f4>
 5d4:	13490b3b 	beq	$26,$9,32c4 <__start-0x7fffcd3c>
 5d8:	00001802 	srl	$3,$0,0x0
 5dc:	3f012e18 	0x3f012e18
 5e0:	3a0e0319 	xori	$14,$16,0x319
 5e4:	6e0b3b0b 	0x6e0b3b0b
 5e8:	1113490e 	beq	$8,$19,12a24 <__start-0x7ffed5dc>
 5ec:	40061201 	0x40061201
 5f0:	19429618 	0x19429618
 5f4:	00001301 	0x1301
 5f8:	11010b19 	beq	$8,$1,3260 <__start-0x7fffcda0>
 5fc:	01061201 	0x1061201
 600:	1a000013 	blez	$16,650 <__start-0x7ffff9b0>
 604:	0111000b 	movn	$0,$8,$17
 608:	00000612 	0x612
 60c:	0301131b 	0x301131b
 610:	3a0b0b0e 	xori	$11,$16,0xb0e
 614:	000b3b0b 	0xb3b0b
 618:	012e1c00 	0x12e1c00
 61c:	19340e03 	0x19340e03
 620:	1364193c 	beq	$27,$4,6b14 <__start-0x7fff94ec>
 624:	00001301 	0x1301
 628:	03012e1d 	0x3012e1d
 62c:	3413490e 	ori	$19,$0,0x490e
 630:	11136419 	beq	$8,$19,19698 <__start-0x7ffe6968>
 634:	40061201 	0x40061201
 638:	96136418 	lhu	$19,25624($16)
 63c:	00001942 	srl	$3,$0,0x5
 640:	0300051e 	0x300051e
 644:	3413490e 	ori	$19,$0,0x490e
 648:	00180219 	0x180219
 64c:	00341f00 	0x341f00
 650:	13490e03 	beq	$26,$9,3e60 <__start-0x7fffc1a0>
 654:	18021934 	0x18021934
 658:	10200000 	beqz	$1,65c <__start-0x7ffff9a4>
 65c:	490b0b00 	bc2tl	$cc2,3260 <__start-0x7fffcda0>
 660:	00000013 	mtlo	$0
 664:	25011101 	addiu	$1,$8,4353
 668:	030b130e 	0x30b130e
 66c:	550e1b0e 	bnel	$8,$14,72a8 <__start-0x7fff8d58>
 670:	10011117 	beq	$0,$1,4ad0 <__start-0x7fffb530>
 674:	02000017 	0x2000017
 678:	0b0b0024 	j	c2c0090 <__start-0x73d3ff70>
 67c:	0e030b3e 	jal	80c2cf8 <__start-0x77f3d308>
 680:	24030000 	addiu	$3,$0,0
 684:	3e0b0b00 	0x3e0b0b00
 688:	0008030b 	0x8030b
 68c:	00160400 	sll	$0,$22,0x10
 690:	0b3a0e03 	j	ce8380c <__start-0x7317c7f4>
 694:	13490b3b 	beq	$26,$9,3384 <__start-0x7fffcc7c>
 698:	13050000 	beq	$24,$5,69c <__start-0x7ffff964>
 69c:	0b0e0301 	j	c380c04 <__start-0x73c7f3fc>
 6a0:	3b0b3a0b 	xori	$11,$24,0x3a0b
 6a4:	0013010b 	0x13010b
 6a8:	000d0600 	sll	$0,$13,0x18
 6ac:	0b3a0e03 	j	ce8380c <__start-0x7317c7f4>
 6b0:	13490b3b 	beq	$26,$9,33a0 <__start-0x7fffcc60>
 6b4:	00000b38 	0xb38
 6b8:	3f012e07 	0x3f012e07
 6bc:	3a0e0319 	xori	$14,$16,0x319
 6c0:	6e0b3b0b 	0x6e0b3b0b
 6c4:	64193c0e 	0x64193c0e
 6c8:	00130113 	0x130113
 6cc:	00050800 	sll	$1,$5,0x0
 6d0:	19341349 	0x19341349
 6d4:	05090000 	tgeiu	$8,0
 6d8:	00134900 	sll	$9,$19,0x4
 6dc:	012e0a00 	0x12e0a00
 6e0:	0e03193f 	jal	80c64fc <__start-0x77f39b04>
 6e4:	0b3b0b3a 	j	cec2ce8 <__start-0x7313d318>
 6e8:	193c0e6e 	0x193c0e6e
 6ec:	00001364 	0x1364
 6f0:	0b000f0b 	j	c003c2c <__start-0x73ffc3d4>
 6f4:	0013490b 	0x13490b
 6f8:	00260c00 	0x260c00
 6fc:	00001349 	0x1349
 700:	0301130d 	break	0x301,0x4c
 704:	3a050b0e 	xori	$5,$16,0xb0e
 708:	010b3b0b 	0x10b3b0b
 70c:	0e000013 	jal	800004c <__start-0x77ffffb4>
 710:	13490101 	beq	$26,$9,b18 <__start-0x7ffff4e8>
 714:	00001301 	0x1301
 718:	4900210f 	bc2f	8b58 <__start-0x7fff74a8>
 71c:	000b2f13 	0xb2f13
 720:	012e1000 	0x12e1000
 724:	0b3a1347 	j	ce84d1c <__start-0x7317b2e4>
 728:	0b200b3b 	j	c802cec <__start-0x737fd314>
 72c:	13011364 	beq	$24,$1,54c0 <__start-0x7fffab40>
 730:	05110000 	bgezal	$8,734 <__start-0x7ffff8cc>
 734:	490e0300 	bc2fl	$cc3,1338 <__start-0x7fffecc8>
 738:	00193413 	0x193413
 73c:	012e1200 	0x12e1200
 740:	0e6e1331 	jal	9b84cc4 <__start-0x7647b33c>
 744:	01111364 	0x1111364
 748:	18400612 	blez	$2,1f94 <__start-0x7fffe06c>
 74c:	42961364 	c0	0x961364
 750:	00130119 	0x130119
 754:	00051300 	sll	$2,$5,0xc
 758:	18021331 	0x18021331
 75c:	2e140000 	sltiu	$20,$16,0
 760:	20134701 	addi	$19,$0,18177
 764:	0113640b 	0x113640b
 768:	15000013 	bnez	$8,7b8 <__start-0x7ffff848>
 76c:	0e030005 	jal	80c0014 <__start-0x77f3ffec>
 770:	0b3b0b3a 	j	cec2ce8 <__start-0x7313d318>
 774:	00001349 	0x1349
 778:	31012e16 	andi	$1,$8,0x2e16
 77c:	640e6e13 	0x640e6e13
 780:	12011113 	beq	$16,$1,4bd0 <__start-0x7fffb430>
 784:	64184006 	0x64184006
 788:	19429713 	0x19429713
 78c:	01000000 	0x1000000
 790:	0e250111 	jal	8940444 <__start-0x776bfbbc>
 794:	0e030b13 	jal	80c2c4c <__start-0x77f3d3b4>
 798:	17550e1b 	bne	$26,$21,4008 <__start-0x7fffbff8>
 79c:	17100111 	bne	$24,$16,be4 <__start-0x7ffff41c>
 7a0:	24020000 	addiu	$2,$0,0
 7a4:	3e0b0b00 	0x3e0b0b00
 7a8:	000e030b 	0xe030b
 7ac:	00240300 	0x240300
 7b0:	0b3e0b0b 	j	cf82c2c <__start-0x7307d3d4>
 7b4:	00000803 	sra	$1,$0,0x0
 7b8:	03001604 	0x3001604
 7bc:	3b0b3a0e 	xori	$11,$24,0x3a0e
 7c0:	0013490b 	0x13490b
 7c4:	00260500 	0x260500
 7c8:	00001349 	0x1349
 7cc:	49003506 	bc2f	dbe8 <__start-0x7fff2418>
 7d0:	07000013 	bltz	$24,820 <__start-0x7ffff7e0>
 7d4:	0e030034 	jal	80c00d0 <__start-0x77f3ff30>
 7d8:	0b3b0b3a 	j	cec2ce8 <__start-0x7313d318>
 7dc:	18021349 	0x18021349
 7e0:	2e080000 	sltiu	$8,$16,0
 7e4:	03193f00 	0x3193f00
 7e8:	3b0b3a0e 	xori	$11,$24,0x3a0e
 7ec:	490e6e0b 	bc2fl	$cc3,1c01c <__start-0x7ffe3fe4>
 7f0:	12011113 	beq	$16,$1,4c40 <__start-0x7fffb3c0>
 7f4:	97184006 	lhu	$24,16390($24)
 7f8:	00001942 	srl	$3,$0,0x5
 7fc:	3f012e09 	0x3f012e09
 800:	3a0e0319 	xori	$14,$16,0x319
 804:	6e0b3b0b 	0x6e0b3b0b
 808:	1201110e 	beq	$16,$1,4c44 <__start-0x7fffb3bc>
 80c:	97184006 	lhu	$24,16390($24)
 810:	13011942 	beq	$24,$1,6d1c <__start-0x7fff92e4>
 814:	050a0000 	tlti	$8,0
 818:	3a080300 	xori	$8,$16,0x300
 81c:	490b3b0b 	bc2tl	$cc2,f44c <__start-0x7fff0bb4>
 820:	00180213 	0x180213
 824:	00050b00 	sll	$1,$5,0xc
 828:	0b3a0e03 	j	ce8380c <__start-0x7317c7f4>
 82c:	13490b3b 	beq	$26,$9,351c <__start-0x7fffcae4>
 830:	00001802 	srl	$3,$0,0x0
 834:	0b000f0c 	j	c003c30 <__start-0x73ffc3d0>
 838:	0013490b 	0x13490b
	...

Disassembly of section .debug_aranges:

00000000 <.debug_aranges>:
   0:	00000024 	and	$0,$0,$0
   4:	00000002 	srl	$0,$0,0x0
   8:	00040000 	sll	$0,$4,0x0
   c:	00000000 	sll	$0,$0,0x0
  10:	80000398 	lb	$0,920($0)
  14:	00000070 	tge	$0,$0,0x1
  18:	80000408 	lb	$0,1032($0)
  1c:	00000218 	0x218
	...
  28:	0000004c 	syscall	0x1
  2c:	02ab0002 	0x2ab0002
  30:	00040000 	sll	$0,$4,0x0
  34:	00000000 	sll	$0,$0,0x0
  38:	80000620 	lb	$0,1568($0)
  3c:	00000064 	0x64
  40:	80000684 	lb	$0,1668($0)
  44:	00000058 	0x58
  48:	800006dc 	lb	$0,1756($0)
  4c:	000000b4 	teq	$0,$0,0x2
  50:	80000790 	lb	$0,1936($0)
  54:	00000088 	0x88
  58:	80000818 	lb	$0,2072($0)
  5c:	000000d0 	0xd0
  60:	800008e8 	lb	$0,2280($0)
  64:	00000040 	sll	$0,$0,0x1
  68:	80000928 	lb	$0,2344($0)
  6c:	0000003c 	0x3c
	...
  78:	000000bc 	0xbc
  7c:	04840002 	0x4840002
  80:	00040000 	sll	$0,$4,0x0
  84:	00000000 	sll	$0,$0,0x0
  88:	80000964 	lb	$0,2404($0)
  8c:	00000054 	0x54
  90:	800009b8 	lb	$0,2488($0)
  94:	00000068 	0x68
  98:	80000a20 	lb	$0,2592($0)
  9c:	000000f8 	0xf8
  a0:	80000b18 	lb	$0,2840($0)
  a4:	0000008c 	syscall	0x2
  a8:	80000ba4 	lb	$0,2980($0)
  ac:	00000090 	0x90
  b0:	80000c34 	lb	$0,3124($0)
  b4:	0000006c 	0x6c
  b8:	80000ca0 	lb	$0,3232($0)
  bc:	000000e4 	0xe4
  c0:	80000d84 	lb	$0,3460($0)
  c4:	0000005c 	0x5c
  c8:	80000de0 	lb	$0,3552($0)
  cc:	0000005c 	0x5c
  d0:	80000e3c 	lb	$0,3644($0)
  d4:	0000005c 	0x5c
  d8:	80000e98 	lb	$0,3736($0)
  dc:	0000005c 	0x5c
  e0:	80000ef4 	lb	$0,3828($0)
  e4:	0000002c 	0x2c
  e8:	80000f20 	lb	$0,3872($0)
  ec:	00000064 	0x64
  f0:	80000f84 	lb	$0,3972($0)
  f4:	00000090 	0x90
  f8:	80001014 	lb	$0,4116($0)
  fc:	0000005c 	0x5c
 100:	80001070 	lb	$0,4208($0)
 104:	00000074 	teq	$0,$0,0x1
 108:	800010e4 	lb	$0,4324($0)
 10c:	00000084 	0x84
 110:	80001168 	lb	$0,4456($0)
 114:	0000004c 	syscall	0x1
 118:	800011b4 	lb	$0,4532($0)
 11c:	0000006c 	0x6c
 120:	80001220 	lb	$0,4640($0)
 124:	0000006c 	0x6c
 128:	8000128c 	lb	$0,4748($0)
 12c:	000000c4 	0xc4
	...
 138:	00000034 	teq	$0,$0
 13c:	09e20002 	j	7880008 <__start-0x7877fff8>
 140:	00040000 	sll	$0,$4,0x0
 144:	00000000 	sll	$0,$0,0x0
 148:	80001350 	lb	$0,4944($0)
 14c:	000000a0 	0xa0
 150:	800013f0 	lb	$0,5104($0)
 154:	00000080 	sll	$0,$0,0x2
 158:	80001470 	lb	$0,5232($0)
 15c:	000002d0 	0x2d0
 160:	80001740 	lb	$0,5952($0)
 164:	00000270 	tge	$0,$0,0x9
	...
 170:	0000002c 	0x2c
 174:	0cbe0002 	jal	2f80008 <__start-0x7d07fff8>
 178:	00040000 	sll	$0,$4,0x0
 17c:	00000000 	sll	$0,$0,0x0
 180:	800019b0 	lb	$0,6576($0)
 184:	000000d0 	0xd0
 188:	80001a80 	lb	$0,6784($0)
 18c:	00000320 	0x320
 190:	80001da0 	lb	$0,7584($0)
 194:	00000178 	0x178
	...
 1a0:	00000024 	and	$0,$0,$0
 1a4:	10290002 	beq	$1,$9,1b0 <__start-0x7ffffe50>
 1a8:	00040000 	sll	$0,$4,0x0
 1ac:	00000000 	sll	$0,$0,0x0
 1b0:	80001f18 	lb	$0,7960($0)
 1b4:	00000064 	0x64
 1b8:	80001f7c 	lb	$0,8060($0)
 1bc:	000000b4 	teq	$0,$0,0x2
	...
 1c8:	00000024 	and	$0,$0,$0
 1cc:	125a0002 	beq	$18,$26,1d8 <__start-0x7ffffe28>
 1d0:	00040000 	sll	$0,$4,0x0
 1d4:	00000000 	sll	$0,$0,0x0
 1d8:	80002030 	lb	$0,8240($0)
 1dc:	000000bc 	0xbc
 1e0:	800020ec 	lb	$0,8428($0)
 1e4:	00000038 	0x38
	...

Disassembly of section .debug_ranges:

00000000 <.debug_ranges>:
   0:	80000398 	lb	$0,920($0)
   4:	80000408 	lb	$0,1032($0)
   8:	80000408 	lb	$0,1032($0)
   c:	80000620 	lb	$0,1568($0)
	...
  18:	80000620 	lb	$0,1568($0)
  1c:	80000684 	lb	$0,1668($0)
  20:	80000684 	lb	$0,1668($0)
  24:	800006dc 	lb	$0,1756($0)
  28:	800006dc 	lb	$0,1756($0)
  2c:	80000790 	lb	$0,1936($0)
  30:	80000790 	lb	$0,1936($0)
  34:	80000818 	lb	$0,2072($0)
  38:	80000818 	lb	$0,2072($0)
  3c:	800008e8 	lb	$0,2280($0)
  40:	800008e8 	lb	$0,2280($0)
  44:	80000928 	lb	$0,2344($0)
  48:	80000928 	lb	$0,2344($0)
  4c:	80000964 	lb	$0,2404($0)
	...
  58:	80000964 	lb	$0,2404($0)
  5c:	800009b8 	lb	$0,2488($0)
  60:	800009b8 	lb	$0,2488($0)
  64:	80000a20 	lb	$0,2592($0)
  68:	80000a20 	lb	$0,2592($0)
  6c:	80000b18 	lb	$0,2840($0)
  70:	80000b18 	lb	$0,2840($0)
  74:	80000ba4 	lb	$0,2980($0)
  78:	80000ba4 	lb	$0,2980($0)
  7c:	80000c34 	lb	$0,3124($0)
  80:	80000c34 	lb	$0,3124($0)
  84:	80000ca0 	lb	$0,3232($0)
  88:	80000ca0 	lb	$0,3232($0)
  8c:	80000d84 	lb	$0,3460($0)
  90:	80000d84 	lb	$0,3460($0)
  94:	80000de0 	lb	$0,3552($0)
  98:	80000de0 	lb	$0,3552($0)
  9c:	80000e3c 	lb	$0,3644($0)
  a0:	80000e3c 	lb	$0,3644($0)
  a4:	80000e98 	lb	$0,3736($0)
  a8:	80000e98 	lb	$0,3736($0)
  ac:	80000ef4 	lb	$0,3828($0)
  b0:	80000ef4 	lb	$0,3828($0)
  b4:	80000f20 	lb	$0,3872($0)
  b8:	80000f20 	lb	$0,3872($0)
  bc:	80000f84 	lb	$0,3972($0)
  c0:	80000f84 	lb	$0,3972($0)
  c4:	80001014 	lb	$0,4116($0)
  c8:	80001014 	lb	$0,4116($0)
  cc:	80001070 	lb	$0,4208($0)
  d0:	80001070 	lb	$0,4208($0)
  d4:	800010e4 	lb	$0,4324($0)
  d8:	800010e4 	lb	$0,4324($0)
  dc:	80001168 	lb	$0,4456($0)
  e0:	80001168 	lb	$0,4456($0)
  e4:	800011b4 	lb	$0,4532($0)
  e8:	800011b4 	lb	$0,4532($0)
  ec:	80001220 	lb	$0,4640($0)
  f0:	80001220 	lb	$0,4640($0)
  f4:	8000128c 	lb	$0,4748($0)
  f8:	8000128c 	lb	$0,4748($0)
  fc:	80001350 	lb	$0,4944($0)
	...
 108:	80001350 	lb	$0,4944($0)
 10c:	800013f0 	lb	$0,5104($0)
 110:	800013f0 	lb	$0,5104($0)
 114:	80001470 	lb	$0,5232($0)
 118:	80001470 	lb	$0,5232($0)
 11c:	80001740 	lb	$0,5952($0)
 120:	80001740 	lb	$0,5952($0)
 124:	800019b0 	lb	$0,6576($0)
	...
 130:	800019b0 	lb	$0,6576($0)
 134:	80001a80 	lb	$0,6784($0)
 138:	80001a80 	lb	$0,6784($0)
 13c:	80001da0 	lb	$0,7584($0)
 140:	80001da0 	lb	$0,7584($0)
 144:	80001f18 	lb	$0,7960($0)
	...
 150:	80001f18 	lb	$0,7960($0)
 154:	80001f7c 	lb	$0,8060($0)
 158:	80001f7c 	lb	$0,8060($0)
 15c:	80002030 	lb	$0,8240($0)
	...
 168:	80002030 	lb	$0,8240($0)
 16c:	800020ec 	lb	$0,8428($0)
 170:	800020ec 	lb	$0,8428($0)
 174:	80002124 	lb	$0,8484($0)
	...

Disassembly of section .debug_line:

00000000 <.debug_line>:
   0:	000000bf 	0xbf
   4:	00670002 	0x670002
   8:	01010000 	0x1010000
   c:	000d0efb 	0xd0efb
  10:	01010101 	0x1010101
  14:	01000000 	0x1000000
  18:	2f010000 	sltiu	$1,$24,0
  1c:	2f727375 	sltiu	$18,$27,29557
  20:	2f62696c 	sltiu	$2,$27,26988
  24:	2d636367 	sltiu	$3,$11,25447
  28:	736f7263 	0x736f7263
  2c:	696d2f73 	0x696d2f73
  30:	6c2d7370 	0x6c2d7370
  34:	78756e69 	0x78756e69
  38:	756e672d 	jalx	5b99cb4 <__start-0x7a46634c>
  3c:	692f372f 	0x692f372f
  40:	756c636e 	jalx	5b18db8 <__start-0x7a4e7248>
  44:	00006564 	0x6564
  48:	74756f72 	jalx	1d5bdc8 <__start-0x7e2a4238>
  4c:	682e7265 	0x682e7265
  50:	00000000 	sll	$0,$0,0x0
  54:	6e69616d 	0x6e69616d
  58:	7070632e 	0x7070632e
  5c:	00000000 	sll	$0,$0,0x0
  60:	69647473 	0x69647473
  64:	672d746e 	0x672d746e
  68:	682e6363 	0x682e6363
  6c:	00000100 	sll	$0,$0,0x4
  70:	02050000 	0x2050000
  74:	80000398 	lb	$0,920($0)
  78:	02ac081a 	0x2ac081a
  7c:	01010054 	0x1010054
  80:	05000204 	bltz	$8,894 <__start-0x7ffff76c>
  84:	00040802 	srl	$1,$4,0x0
  88:	43081980 	c0	0x1081980
  8c:	fa143002 	sdc2	$20,12290($16)
  90:	01040200 	0x1040200
  94:	f5064a06 	sdc1	$f6,18950($8)
  98:	02172402 	0x2172402
  9c:	76031434 	jalx	80c50d0 <__start-0x77f3af30>
  a0:	03015002 	0x3015002
  a4:	4f3c080d 	c3	0x13c080d
  a8:	bf142402 	cache	0x14,9218($24)
  ac:	bbbbbbf8 	swr	$27,-17416($29)
  b0:	f3f3f3bb 	0xf3f3f3bb
  b4:	026f03f4 	teq	$19,$15,0xf
  b8:	03bf0128 	0x3bf0128
  bc:	08024a0d 	j	92834 <__start-0x7ff6d7cc>
  c0:	25010100 	addiu	$1,$8,256
  c4:	02000001 	movf	$0,$16,$fcc0
  c8:	00006100 	sll	$12,$0,0x4
  cc:	fb010100 	sdc2	$1,256($24)
  d0:	01000d0e 	0x1000d0e
  d4:	00010101 	0x10101
  d8:	00010000 	sll	$0,$1,0x0
  dc:	752f0100 	jalx	4bc0400 <__start-0x7b43fc00>
  e0:	6c2f7273 	0x6c2f7273
  e4:	672f6269 	0x672f6269
  e8:	632d6363 	0x632d6363
  ec:	73736f72 	0x73736f72
  f0:	70696d2f 	0x70696d2f
  f4:	696c2d73 	0x696c2d73
  f8:	2d78756e 	sltiu	$24,$11,30062
  fc:	2f756e67 	sltiu	$21,$27,28263
 100:	6e692f37 	0x6e692f37
 104:	64756c63 	0x64756c63
 108:	62000065 	0x62000065
 10c:	6c746f6f 	0x6c746f6f
 110:	6564616f 	0x6564616f
 114:	70632e72 	0x70632e72
 118:	00000070 	tge	$0,$0,0x1
 11c:	64747300 	0x64747300
 120:	2d746e69 	sltiu	$20,$11,28265
 124:	2e636367 	sltiu	$3,$19,25447
 128:	00010068 	0x10068
 12c:	05000000 	bltz	$8,130 <__start-0x7ffffed0>
 130:	00062002 	srl	$4,$6,0x0
 134:	3d081a80 	0x3d081a80
 138:	f3142802 	0xf3142802
 13c:	01001802 	0x1001802
 140:	02050001 	movt	$0,$16,$fcc1
 144:	80000684 	lb	$0,1668($0)
 148:	bb010f03 	swr	$1,3843($24)
 14c:	f3142802 	0xf3142802
 150:	01001402 	0x1001402
 154:	02050001 	movt	$0,$16,$fcc1
 158:	800006dc 	lb	$0,1756($0)
 15c:	f3011603 	0xf3011603
 160:	bb75084b 	swr	$21,2123($27)
 164:	08bb7508 	j	2edd420 <__start-0x7d122be0>
 168:	7508bb75 	jalx	422edd4 <__start-0x7bdd122c>
 16c:	0018024b 	0x18024b
 170:	05000101 	bltz	$8,578 <__start-0x7ffffa88>
 174:	00079002 	srl	$18,$7,0x0
 178:	01230380 	0x1230380
 17c:	02007508 	0x2007508
 180:	4a060304 	c2	0x60304
 184:	02040200 	0x2040200
 188:	003e0806 	srlv	$1,$30,$1
 18c:	08020402 	j	81008 <__start-0x7ff7eff8>
 190:	bb4008aa 	swr	$0,2218($26)
 194:	01001c02 	0x1001c02
 198:	02050001 	movt	$0,$16,$fcc1
 19c:	80000818 	lb	$0,2072($0)
 1a0:	08012c03 	j	4b00c <__start-0x7ffb4ff4>
 1a4:	0402003e 	bltzl	$0,2a0 <__start-0x7ffffd60>
 1a8:	06820601 	bltzl	$20,19b0 <__start-0x7fffe650>
 1ac:	f47508bc 	sdc1	$f21,2236($3)
 1b0:	00152c02 	srl	$5,$21,0x10
 1b4:	03020402 	0x3020402
 1b8:	01240278 	0x1240278
 1bc:	3c080a03 	lui	$8,0xa03
 1c0:	01001c02 	0x1001c02
 1c4:	02050001 	movt	$0,$16,$fcc1
 1c8:	800008e8 	lb	$0,2280($0)
 1cc:	03013b03 	0x3013b03
 1d0:	3d08f20b 	0x3d08f20b
 1d4:	01001c02 	0x1001c02
 1d8:	02050001 	movt	$0,$16,$fcc1
 1dc:	80000928 	lb	$0,2344($0)
 1e0:	0100ca03 	0x100ca03
 1e4:	02bb3e08 	0x2bb3e08
 1e8:	0101001c 	0x101001c
 1ec:	00000269 	0x269
 1f0:	006b0002 	0x6b0002
 1f4:	01010000 	0x1010000
 1f8:	000d0efb 	0xd0efb
 1fc:	01010101 	0x1010101
 200:	01000000 	0x1000000
 204:	2f010000 	sltiu	$1,$24,0
 208:	2f727375 	sltiu	$18,$27,29557
 20c:	2f62696c 	sltiu	$2,$27,26988
 210:	2d636367 	sltiu	$3,$11,25447
 214:	736f7263 	0x736f7263
 218:	696d2f73 	0x696d2f73
 21c:	6c2d7370 	0x6c2d7370
 220:	78756e69 	0x78756e69
 224:	756e672d 	jalx	5b99cb4 <__start-0x7a46634c>
 228:	692f372f 	0x692f372f
 22c:	756c636e 	jalx	5b18db8 <__start-0x7a4e7248>
 230:	00006564 	0x6564
 234:	6c697475 	0x6c697475
 238:	2e797469 	sltiu	$25,$19,29801
 23c:	00707063 	0x707063
 240:	73000000 	madd	$24,$0
 244:	6e696474 	0x6e696474
 248:	63672d74 	0x63672d74
 24c:	00682e63 	0x682e63
 250:	75000001 	jalx	4000004 <__start-0x7bfffffc>
 254:	696c6974 	0x696c6974
 258:	682e7974 	0x682e7974
 25c:	00000000 	sll	$0,$0,0x0
 260:	02050000 	0x2050000
 264:	80000964 	lb	$0,2404($0)
 268:	023d0815 	0x23d0815
 26c:	1402132c 	bne	$0,$2,4f20 <__start-0x7fffb0e0>
 270:	00010100 	sll	$0,$1,0x4
 274:	09b80205 	j	6e00814 <__start-0x791ff7ec>
 278:	081a8000 	j	6a0000 <__start-0x7f960000>
 27c:	08ad0875 	j	2b421d4 <__start-0x7d4bde2c>
 280:	001802ad 	0x1802ad
 284:	05000101 	bltz	$8,68c <__start-0x7ffff974>
 288:	000a2002 	srl	$4,$10,0x0
 28c:	010e0380 	0x10e0380
 290:	34023d08 	ori	$2,$0,0x3d08
 294:	134c0213 	beq	$26,$12,ae4 <__start-0x7ffff51c>
 298:	4b134c02 	c2	0x1134c02
 29c:	01001402 	0x1001402
 2a0:	02050001 	movt	$0,$16,$fcc1
 2a4:	80000b18 	lb	$0,2840($0)
 2a8:	08011603 	j	4580c <__start-0x7ffba7f4>
 2ac:	02ad0875 	0x2ad0875
 2b0:	02841134 	teq	$20,$4,0x44
 2b4:	0101001c 	0x101001c
 2b8:	a4020500 	sh	$2,1280($0)
 2bc:	0380000b 	movn	$0,$28,$0
 2c0:	3d08011c 	0x3d08011c
 2c4:	01040200 	0x1040200
 2c8:	08068206 	j	1a0818 <__start-0x7fe5f7e8>
 2cc:	113402ad 	beq	$9,$20,d84 <__start-0x7ffff27c>
 2d0:	001c0284 	0x1c0284
 2d4:	05000101 	bltz	$8,6dc <__start-0x7ffff924>
 2d8:	000c3402 	srl	$6,$12,0x10
 2dc:	01220380 	0x1220380
 2e0:	3c027508 	lui	$2,0x7508
 2e4:	00180213 	0x180213
 2e8:	05000101 	bltz	$8,6f0 <__start-0x7ffff910>
 2ec:	000ca002 	srl	$20,$12,0x0
 2f0:	01270380 	0x1270380
 2f4:	3e083d08 	0x3e083d08
 2f8:	0402004b 	bltzl	$0,428 <__start-0x7ffffbd8>
 2fc:	064a0601 	tlti	$18,1537
 300:	00f33d08 	0xf33d08
 304:	08020402 	j	81008 <__start-0x7ff7eff8>
 308:	083f08e2 	j	fc2388 <__start-0x7f03dc78>
 30c:	8573083d 	lh	$19,2109($11)
 310:	001802f3 	tltu	$0,$24,0xb
 314:	05000101 	bltz	$8,71c <__start-0x7ffff8e4>
 318:	000d8402 	srl	$16,$13,0x10
 31c:	01350380 	0x1350380
 320:	133802f3 	beq	$25,$24,ef0 <__start-0x7ffff110>
 324:	01001402 	0x1001402
 328:	02050001 	movt	$0,$16,$fcc1
 32c:	80000de0 	lb	$0,3552($0)
 330:	f3013a03 	0xf3013a03
 334:	02133802 	0x2133802
 338:	01010014 	0x1010014
 33c:	3c020500 	lui	$2,0x500
 340:	0380000e 	0x380000e
 344:	3d08013f 	0x3d08013f
 348:	02133402 	0x2133402
 34c:	01010014 	0x1010014
 350:	98020500 	lwr	$2,1280($0)
 354:	0380000e 	0x380000e
 358:	080100c4 	j	40310 <__start-0x7ffbfcf0>
 35c:	1334023d 	beq	$25,$20,c54 <__start-0x7ffff3ac>
 360:	01001402 	0x1001402
 364:	02050001 	movt	$0,$16,$fcc1
 368:	80000ef4 	lb	$0,3828($0)
 36c:	0100c803 	0x100c803
 370:	18023c08 	0x18023c08
 374:	00010100 	sll	$0,$1,0x4
 378:	0f200205 	jal	c800814 <__start-0x737ff7ec>
 37c:	cb038000 	lwc2	$3,-32768($24)
 380:	3d080100 	0x3d080100
 384:	84ab08f3 	lh	$11,2291($5)
 388:	01001c02 	0x1001c02
 38c:	02050001 	movt	$0,$16,$fcc1
 390:	80000f84 	lb	$0,3972($0)
 394:	0100d103 	0x100d103
 398:	08bd3d08 	j	2f4f420 <__start-0x7d0b0be0>
 39c:	2402f3e6 	addiu	$2,$0,-3098
 3a0:	001c0214 	0x1c0214
 3a4:	05000101 	bltz	$8,7ac <__start-0x7ffff854>
 3a8:	00101402 	srl	$2,$16,0x10
 3ac:	00dd0380 	0xdd0380
 3b0:	bc3d0801 	cache	0x1d,2049($1)
 3b4:	02bc80c0 	0x2bc80c0
 3b8:	0101001c 	0x101001c
 3bc:	70020500 	0x70020500
 3c0:	03800010 	0x3800010
 3c4:	080100e9 	j	403a4 <__start-0x7ffbfc5c>
 3c8:	ad0883ad 	sw	$8,-31827($8)
 3cc:	02843b08 	0x2843b08
 3d0:	01010018 	mult	$8,$1
 3d4:	e4020500 	swc1	$f2,1280($0)
 3d8:	03800010 	0x3800010
 3dc:	080100f0 	j	403c0 <__start-0x7ffbfc40>
 3e0:	ad08f375 	sw	$8,-3211($8)
 3e4:	0284e308 	0x284e308
 3e8:	01010018 	mult	$8,$1
 3ec:	68020500 	0x68020500
 3f0:	03800011 	mthi	$28
 3f4:	080100f7 	j	403dc <__start-0x7ffbfc24>
 3f8:	0402003d 	bltzl	$0,4f0 <__start-0x7ffffb10>
 3fc:	3c080601 	lui	$8,0x601
 400:	02040200 	0x2040200
 404:	040200ba 	bltzl	$0,6f0 <__start-0x7ffff910>
 408:	024b0605 	0x24b0605
 40c:	01010014 	0x1010014
 410:	b4020500 	0xb4020500
 414:	03800011 	mthi	$28
 418:	f30100fc 	0xf30100fc
 41c:	08e608f3 	j	39823cc <__start-0x7c67dc34>
 420:	00140275 	0x140275
 424:	05000101 	bltz	$8,82c <__start-0x7ffff7d4>
 428:	00122002 	srl	$4,$18,0x0
 42c:	01840380 	0x1840380
 430:	4802f301 	0x4802f301
 434:	00140213 	0x140213
 438:	05000101 	bltz	$8,840 <__start-0x7ffff7c0>
 43c:	00128c02 	srl	$17,$18,0x10
 440:	01890380 	0x1890380
 444:	bbad0801 	swr	$13,2049($29)
 448:	08bcbbbb 	j	2f2eeec <__start-0x7d0d1114>
 44c:	0876083d 	j	1d820f4 <__start-0x7e27df0c>
 450:	87390875 	lh	$25,2165($25)
 454:	01001802 	0x1001802
 458:	00015401 	0x15401
 45c:	6a000200 	0x6a000200
 460:	01000000 	0x1000000
 464:	0d0efb01 	jal	43bec04 <__start-0x7bc413fc>
 468:	01010100 	0x1010100
 46c:	00000001 	movf	$0,$0,$fcc0
 470:	01000001 	movf	$0,$8,$fcc0
 474:	7273752f 	0x7273752f
 478:	62696c2f 	0x62696c2f
 47c:	6363672f 	0x6363672f
 480:	6f72632d 	0x6f72632d
 484:	6d2f7373 	0x6d2f7373
 488:	2d737069 	sltiu	$19,$11,28777
 48c:	756e696c 	jalx	5b9a5b0 <__start-0x7a465a50>
 490:	6e672d78 	0x6e672d78
 494:	2f372f75 	sltiu	$23,$25,12149
 498:	6c636e69 	0x6c636e69
 49c:	00656475 	0x656475
 4a0:	5f617400 	0x5f617400
 4a4:	2e6c6168 	sltiu	$12,$19,24936
 4a8:	00707063 	0x707063
 4ac:	73000000 	madd	$24,$0
 4b0:	6e696474 	0x6e696474
 4b4:	63672d74 	0x63672d74
 4b8:	00682e63 	0x682e63
 4bc:	75000001 	jalx	4000004 <__start-0x7bfffffc>
 4c0:	696c6974 	0x696c6974
 4c4:	682e7974 	0x682e7974
 4c8:	00000000 	sll	$0,$0,0x0
 4cc:	02050000 	0x2050000
 4d0:	80001350 	lb	$0,4944($0)
 4d4:	f3011103 	0xf3011103
 4d8:	02008383 	0x2008383
 4dc:	4a060304 	c2	0x60304
 4e0:	02040200 	0x2040200
 4e4:	0200f406 	0x200f406
 4e8:	e5080204 	swc1	$f8,516($8)
 4ec:	02040200 	0x2040200
 4f0:	040200f3 	bltzl	$0,8c0 <__start-0x7ffff740>
 4f4:	4208ee02 	c0	0x8ee02
 4f8:	0014024b 	0x14024b
 4fc:	05000101 	bltz	$8,904 <__start-0x7ffff6fc>
 500:	0013f002 	srl	$30,$19,0x0
 504:	011e0380 	0x11e0380
 508:	08ad08bb 	j	2b422ec <__start-0x7d4bdd14>
 50c:	132802ad 	beq	$25,$8,fc4 <__start-0x7ffff03c>
 510:	01001402 	0x1001402
 514:	02050001 	movt	$0,$16,$fcc1
 518:	80001470 	lb	$0,5232($0)
 51c:	02012503 	0x2012503
 520:	f4bb1424 	sdc1	$f27,5156($5)
 524:	e908e508 	swc2	$8,-6904($8)
 528:	137402bc 	beq	$27,$20,101c <__start-0x7fffefe4>
 52c:	883708bc 	lwl	$23,2236($1)
 530:	08e7084d 	j	39c2134 <__start-0x7c63decc>
 534:	3402853d 	ori	$2,$0,0x853d
 538:	f4ae0814 	sdc1	$f14,2068($5)
 53c:	3c080903 	lui	$8,0x903
 540:	01040200 	0x1040200
 544:	08064a06 	j	192818 <__start-0x7fe6d7e8>
 548:	1334023e 	beq	$25,$20,e44 <__start-0x7ffff1bc>
 54c:	08143002 	j	50c008 <__start-0x7faf3ff8>
 550:	0040083e 	0x40083e
 554:	03020402 	0x3020402
 558:	0e03ba75 	jal	80ee9d4 <__start-0x77f1162c>
 55c:	4bbc3c08 	c2	0x1bc3c08
 560:	01002002 	0x1002002
 564:	02050001 	movt	$0,$16,$fcc1
 568:	80001740 	lb	$0,5952($0)
 56c:	0100e303 	0x100e303
 570:	f3f3ad08 	0xf3f3ad08
 574:	bbf5bbf3 	swr	$21,-17421($31)
 578:	bbf3f3f3 	swr	$19,-3085($31)
 57c:	bbbbf3bd 	swr	$27,-3139($29)
 580:	bcf3ad08 	cache	0x13,-21240($7)
 584:	08bdbbbb 	j	2f6eeec <__start-0x7d091114>
 588:	08f44cad 	j	3d132b4 <__start-0x7c2ecd4c>
 58c:	0402003d 	bltzl	$0,684 <__start-0x7ffff97c>
 590:	064a0601 	tlti	$18,1537
 594:	34023e08 	ori	$2,$0,0x3e08
 598:	14300213 	bne	$1,$16,de8 <__start-0x7ffff218>
 59c:	40083e08 	0x40083e08
 5a0:	02040200 	0x2040200
 5a4:	03ba7503 	0x3ba7503
 5a8:	bb3c080e 	swr	$28,2062($25)
 5ac:	01001c02 	0x1001c02
 5b0:	00018a01 	0x18a01
 5b4:	76000200 	jalx	8000800 <__start-0x77fff800>
 5b8:	01000000 	0x1000000
 5bc:	0d0efb01 	jal	43bec04 <__start-0x7bc413fc>
 5c0:	01010100 	0x1010100
 5c4:	00000001 	movf	$0,$0,$fcc0
 5c8:	01000001 	movf	$0,$8,$fcc0
 5cc:	7273752f 	0x7273752f
 5d0:	62696c2f 	0x62696c2f
 5d4:	6363672f 	0x6363672f
 5d8:	6f72632d 	0x6f72632d
 5dc:	6d2f7373 	0x6d2f7373
 5e0:	2d737069 	sltiu	$19,$11,28777
 5e4:	756e696c 	jalx	5b9a5b0 <__start-0x7a465a50>
 5e8:	6e672d78 	0x6e672d78
 5ec:	2f372f75 	sltiu	$23,$25,12149
 5f0:	6c636e69 	0x6c636e69
 5f4:	00656475 	0x656475
 5f8:	6f727000 	0x6f727000
 5fc:	6f636f74 	0x6f636f74
 600:	70632e6c 	0x70632e6c
 604:	00000070 	tge	$0,$0,0x1
 608:	64747300 	0x64747300
 60c:	2d746e69 	sltiu	$20,$11,28265
 610:	2e636367 	sltiu	$3,$19,25447
 614:	00010068 	0x10068
 618:	70697200 	0x70697200
 61c:	0000682e 	0x682e
 620:	623c0000 	0x623c0000
 624:	746c6975 	jalx	1b1a5d4 <__start-0x7e4e5a2c>
 628:	3e6e692d 	0x3e6e692d
 62c:	00000000 	sll	$0,$0,0x0
 630:	02050000 	0x2050000
 634:	800019b0 	lb	$0,6576($0)
 638:	0100dc03 	0x100dc03
 63c:	24023d08 	addiu	$2,$0,15624
 640:	0200bb13 	0x200bb13
 644:	4a060104 	c2	0x60104
 648:	3c02f306 	lui	$2,0xf306
 64c:	04020013 	bltzl	$0,69c <__start-0x7ffff964>
 650:	3f08b802 	0x3f08b802
 654:	0018024b 	0x18024b
 658:	05000101 	bltz	$8,a60 <__start-0x7ffff5a0>
 65c:	001a8002 	srl	$16,$26,0x0
 660:	012e0380 	0x12e0380
 664:	3e08ad08 	0x3e08ad08
 668:	83bc3e08 	lb	$28,15880($29)
 66c:	f3f33d08 	0xf3f33d08
 670:	01040200 	0x1040200
 674:	063c0806 	0x63c0806
 678:	f4bc3e08 	sdc1	$f28,15880($5)
 67c:	83bcbcbc 	lb	$28,-17220($29)
 680:	01040200 	0x1040200
 684:	08068206 	j	1a0818 <__start-0x7fe5f7e8>
 688:	1328023e 	beq	$25,$8,f84 <__start-0x7ffff07c>
 68c:	ad08ad08 	sw	$8,-21240($8)
 690:	ae08ad08 	sw	$8,-21240($16)
 694:	02007608 	0x2007608
 698:	08060204 	j	180810 <__start-0x7fe7f7f0>
 69c:	0402003c 	bltzl	$0,790 <__start-0x7ffff870>
 6a0:	0200ba03 	0x200ba03
 6a4:	3c080404 	lui	$8,0x404
 6a8:	08bcf406 	j	2f3d018 <__start-0x7d0c2fe8>
 6ac:	0200bcae 	0x200bcae
 6b0:	08060204 	j	180810 <__start-0x7fe7f7f0>
 6b4:	040200ac 	bltzl	$0,968 <__start-0x7ffff698>
 6b8:	00e40803 	0xe40803
 6bc:	ba040402 	swr	$4,1026($16)
 6c0:	06040200 	0x6040200
 6c4:	0384064a 	0x384064a
 6c8:	7903ba09 	0x7903ba09
 6cc:	03013402 	0x3013402
 6d0:	0200f209 	0x200f209
 6d4:	61030204 	0x61030204
 6d8:	082303ba 	j	8c0ee8 <__start-0x7f73f118>
 6dc:	18024b3c 	0x18024b3c
 6e0:	00010100 	sll	$0,$1,0x4
 6e4:	1da00205 	bgtz	$13,efc <__start-0x7ffff104>
 6e8:	f7038000 	sdc1	$f3,-32768($24)
 6ec:	3d080100 	0x3d080100
 6f0:	ad08f3f3 	sw	$8,-3085($8)
 6f4:	040200bc 	bltzl	$0,9e8 <__start-0x7ffff618>
 6f8:	064a0602 	tlti	$18,1538
 6fc:	30027608 	andi	$2,$0,0x7608
 700:	02008313 	0x2008313
 704:	08060104 	j	180410 <__start-0x7fe7fbf0>
 708:	0402003c 	bltzl	$0,7fc <__start-0x7ffff804>
 70c:	0200ba02 	0x200ba02
 710:	004a0404 	0x4a0404
 714:	06040402 	0x6040402
 718:	040200bb 	bltzl	$0,a08 <__start-0x7ffff5f8>
 71c:	0200bb04 	0x200bb04
 720:	00f30404 	0xf30404
 724:	f3040402 	0xf3040402
 728:	04040200 	0x4040200
 72c:	040200bb 	bltzl	$0,a1c <__start-0x7ffff5e4>
 730:	f2770304 	0xf2770304
 734:	e4080c03 	swc1	$f8,3075($0)
 738:	1402ad08 	bne	$0,$2,fffebb5c <_bss_end+0x7ffe932c>
 73c:	a3010100 	sb	$1,256($24)
 740:	02000000 	0x2000000
 744:	00006300 	sll	$12,$0,0xc
 748:	fb010100 	sdc2	$1,256($24)
 74c:	01000d0e 	0x1000d0e
 750:	00010101 	0x10101
 754:	00010000 	sll	$0,$1,0x0
 758:	752f0100 	jalx	4bc0400 <__start-0x7b43fc00>
 75c:	6c2f7273 	0x6c2f7273
 760:	672f6269 	0x672f6269
 764:	632d6363 	0x632d6363
 768:	73736f72 	0x73736f72
 76c:	70696d2f 	0x70696d2f
 770:	696c2d73 	0x696c2d73
 774:	2d78756e 	sltiu	$24,$11,30062
 778:	2f756e67 	sltiu	$21,$27,28263
 77c:	6e692f37 	0x6e692f37
 780:	64756c63 	0x64756c63
 784:	72000065 	0x72000065
 788:	682e7069 	0x682e7069
 78c:	00000000 	sll	$0,$0,0x0
 790:	2e706972 	sltiu	$16,$19,26994
 794:	00707063 	0x707063
 798:	73000000 	madd	$24,$0
 79c:	6e696474 	0x6e696474
 7a0:	63672d74 	0x63672d74
 7a4:	00682e63 	0x682e63
 7a8:	00000001 	movf	$0,$0,$fcc0
 7ac:	18020500 	0x18020500
 7b0:	1980001f 	blez	$12,830 <__start-0x7ffff7d0>
 7b4:	4802ac08 	0x4802ac08
 7b8:	04010100 	bgez	$0,bbc <__start-0x7ffff444>
 7bc:	02050002 	0x2050002
 7c0:	80001f7c 	lb	$0,8060($0)
 7c4:	00ac0814 	0xac0814
 7c8:	06040402 	0x6040402
 7cc:	0200e408 	0x200e408
 7d0:	00820304 	0x820304
 7d4:	06020402 	bltzl	$16,17e0 <__start-0x7fffe820>
 7d8:	00143002 	srl	$6,$20,0x0
 7dc:	08020402 	j	81008 <__start-0x7ff7eff8>
 7e0:	002402ad 	0x2402ad
 7e4:	00900101 	0x900101
 7e8:	00020000 	sll	$0,$2,0x0
 7ec:	0000005f 	0x5f
 7f0:	0efb0101 	jal	bec0404 <__start-0x7413fbfc>
 7f4:	0101000d 	break	0x101
 7f8:	00000101 	0x101
 7fc:	00000100 	sll	$0,$0,0x4
 800:	73752f01 	0x73752f01
 804:	696c2f72 	0x696c2f72
 808:	63672f62 	0x63672f62
 80c:	72632d63 	0x72632d63
 810:	2f73736f 	sltiu	$19,$27,29551
 814:	7370696d 	0x7370696d
 818:	6e696c2d 	0x6e696c2d
 81c:	672d7875 	0x672d7875
 820:	372f756e 	ori	$15,$25,0x756e
 824:	636e692f 	0x636e692f
 828:	6564756c 	0x6564756c
 82c:	61740000 	0x61740000
 830:	6261745f 	0x6261745f
 834:	632e656c 	0x632e656c
 838:	00007070 	tge	$0,$0,0x1c1
 83c:	74730000 	jalx	1cc0000 <__start-0x7e340000>
 840:	746e6964 	jalx	1b9a590 <__start-0x7e465a70>
 844:	6363672d 	0x6363672d
 848:	0100682e 	0x100682e
 84c:	00000000 	sll	$0,$0,0x0
 850:	20300205 	addi	$16,$1,517
 854:	021a8000 	0x21a8000
 858:	f3f31328 	0xf3f31328
 85c:	02bbf4f3 	tltu	$21,$27,0x3d3
 860:	02bb1424 	0x2bb1424
 864:	01010018 	mult	$8,$1
 868:	ec020500 	swc3	$2,1280($0)
 86c:	03800020 	add	$0,$28,$0
 870:	08bb0115 	j	2ec0454 <__start-0x7d13fbac>
 874:	00140275 	0x140275
 878:	Address 0x0000000000000878 is out of bounds.


Disassembly of section .debug_str:

00000000 <.debug_str>:
   0:	5f747364 	0x5f747364
   4:	72646461 	0x72646461
   8:	5f00315f 	bgtzl	$24,c588 <__start-0x7fff3a78>
   c:	37314e5a 	ori	$17,$25,0x4e5a
  10:	74756f52 	jalx	1d5bd48 <__start-0x7e2a42b8>
  14:	54676e69 	bnel	$3,$7,1b9bc <__start-0x7ffe4644>
  18:	656c6261 	0x656c6261
  1c:	72746e45 	0x72746e45
  20:	45324379 	0x45324379
  24:	6a6a6a6a 	0x6a6a6a6a
  28:	656e006a 	0x656e006a
  2c:	6f687478 	0x6f687478
  30:	4e470070 	c3	0x470070
  34:	2b432055 	slti	$3,$26,8277
  38:	2031312b 	addi	$17,$1,12587
  3c:	2e342e37 	sltiu	$20,$17,11831
  40:	6d2d2030 	0x6d2d2030
  44:	2d206c65 	sltiu	$0,$9,27749
  48:	6e69736d 	0x6e69736d
  4c:	2d656c67 	sltiu	$5,$11,27751
  50:	616f6c66 	0x616f6c66
  54:	6d2d2074 	0x6d2d2074
  58:	746f6778 	jalx	1bd9de0 <__start-0x7e426220>
  5c:	6e6d2d20 	0x6e6d2d20
  60:	62612d6f 	0x62612d6f
  64:	6c616369 	0x6c616369
  68:	2d20736c 	sltiu	$0,$9,29548
  6c:	7261686d 	0x7261686d
  70:	6c662d64 	0x6c662d64
  74:	2074616f 	addi	$20,$3,24943
  78:	70696d2d 	0x70696d2d
  7c:	20323373 	addi	$18,$1,13171
  80:	6c6c6d2d 	0x6c6c6d2d
  84:	2d206373 	sltiu	$0,$9,25459
  88:	2d6f6e6d 	sltiu	$15,$11,28269
  8c:	3163786c 	andi	$3,$11,0x786c
  90:	6378732d 	0x6378732d
  94:	6d2d2031 	0x6d2d2031
  98:	732d6f6e 	0x732d6f6e
  9c:	65726168 	0x65726168
  a0:	6d2d2064 	0x6d2d2064
  a4:	3d696261 	0x3d696261
  a8:	2d203233 	sltiu	$0,$9,12851
  ac:	732d2067 	0x732d2067
  b0:	633d6474 	0x633d6474
  b4:	31312b2b 	andi	$17,$9,0x2b2b
  b8:	66662d20 	0x66662d20
  bc:	74636e75 	jalx	18db9d4 <__start-0x7e72462c>
  c0:	2d6e6f69 	sltiu	$14,$11,28521
  c4:	74636573 	jalx	18d95cc <__start-0x7e726a34>
  c8:	736e6f69 	0x736e6f69
  cc:	64662d20 	0x64662d20
  d0:	2d617461 	sltiu	$1,$11,29793
  d4:	74636573 	jalx	18d95cc <__start-0x7e726a34>
  d8:	736e6f69 	0x736e6f69
  dc:	66662d20 	0x66662d20
  e0:	73656572 	0x73656572
  e4:	646e6174 	0x646e6174
  e8:	20676e69 	addi	$7,$3,28265
  ec:	6f6e662d 	0x6f6e662d
  f0:	6975622d 	0x6975622d
  f4:	6e69746c 	0x6e69746c
  f8:	6e662d20 	0x6e662d20
  fc:	49502d6f 	0x49502d6f
 100:	75620045 	jalx	5880114 <__start-0x7a77feec>
 104:	72656666 	0x72656666
 108:	6165685f 	0x6165685f
 10c:	00726564 	0x726564
 110:	72746e65 	0x72746e65
 114:	5a5f0079 	0x5a5f0079
 118:	5237314e 	beql	$17,$23,c654 <__start-0x7fff39ac>
 11c:	6974756f 	0x6974756f
 120:	6154676e 	0x6154676e
 124:	45656c62 	0x45656c62
 128:	7972746e 	0x7972746e
 12c:	6a453443 	0x6a453443
 130:	6a6a6a6a 	0x6a6a6a6a
 134:	5f666900 	0x5f666900
 138:	65646e69 	0x65646e69
 13c:	6e750078 	0x6e750078
 140:	6e676973 	0x6e676973
 144:	63206465 	0x63206465
 148:	00726168 	0x726168
 14c:	73696874 	0x73696874
 150:	6f687300 	0x6f687300
 154:	75207472 	jalx	481d1c8 <__start-0x7b7e2e38>
 158:	6769736e 	0x6769736e
 15c:	2064656e 	addi	$4,$3,25966
 160:	00746e69 	0x746e69
 164:	6e69616d 	0x6e69616d
 168:	7070632e 	0x7070632e
 16c:	63617000 	0x63617000
 170:	0074656b 	0x74656b
 174:	6e69616d 	0x6e69616d
 178:	74656d00 	jalx	195b400 <__start-0x7e6a4c00>
 17c:	00636972 	tlt	$3,$3,0x1a5
 180:	676e6f6c 	0x676e6f6c
 184:	6e6f6c20 	0x6e6f6c20
 188:	6e752067 	0x6e752067
 18c:	6e676973 	0x6e676973
 190:	69206465 	0x69206465
 194:	7500746e 	jalx	401d1b8 <__start-0x7bfe2e48>
 198:	38746e69 	xori	$20,$3,0x6e69
 19c:	7300745f 	0x7300745f
 1a0:	615f6372 	0x615f6372
 1a4:	5f726464 	0x5f726464
 1a8:	72730031 	0x72730031
 1ac:	64615f63 	0x64615f63
 1b0:	325f7264 	andi	$31,$18,0x7264
 1b4:	756f5200 	jalx	5bd4800 <__start-0x7a42b800>
 1b8:	676e6974 	0x676e6974
 1bc:	6c626154 	0x6c626154
 1c0:	746e4565 	jalx	1b91594 <__start-0x7e46ea6c>
 1c4:	6c007972 	0x6c007972
 1c8:	20676e6f 	addi	$7,$3,28271
 1cc:	676e6f6c 	0x676e6f6c
 1d0:	746e6920 	jalx	1b9a480 <__start-0x7e465b80>
 1d4:	69727000 	0x69727000
 1d8:	7300746e 	0x7300746e
 1dc:	74726f68 	jalx	1c9bda0 <__start-0x7e364260>
 1e0:	746e6920 	jalx	1b9a480 <__start-0x7e465b80>
 1e4:	6e697500 	0x6e697500
 1e8:	5f363174 	0x5f363174
 1ec:	69750074 	0x69750074
 1f0:	3233746e 	andi	$19,$17,0x746e
 1f4:	6400745f 	0x6400745f
 1f8:	615f7473 	0x615f7473
 1fc:	5f726464 	0x5f726464
 200:	6d2f0032 	0x6d2f0032
 204:	632f746e 	0x632f746e
 208:	6573552f 	0x6573552f
 20c:	6e2f7372 	0x6e2f7372
 210:	73616d61 	0x73616d61
 214:	636f442f 	0x636f442f
 218:	6e656d75 	0x6e656d75
 21c:	432f7374 	c0	0x12f7374
 220:	7372756f 	0x7372756f
 224:	30322f65 	andi	$18,$1,0x2f65
 228:	75413931 	jalx	504e4c4 <__start-0x7afb1b3c>
 22c:	6e6d7574 	0x6e6d7574
 230:	67724f2f 	0x67724f2f
 234:	7a696e61 	0x7a696e61
 238:	6f697461 	0x6f697461
 23c:	74654e6e 	jalx	19539b8 <__start-0x7e6ac648>
 240:	6b726f77 	0x6b726f77
 244:	65707845 	0x65707845
 248:	656d6972 	0x656d6972
 24c:	742f746e 	jalx	bdd1b8 <__start-0x7f422e48>
 250:	52706d65 	beql	$19,$16,1b7e8 <__start-0x7ffe4818>
 254:	5f005049 	bgtzl	$24,1437c <__start-0x7ffebc84>
 258:	37314e5a 	ori	$17,$25,0x4e5a
 25c:	74756f52 	jalx	1d5bd48 <__start-0x7e2a42b8>
 260:	54676e69 	bnel	$3,$7,1bc08 <__start-0x7ffe43f8>
 264:	656c6261 	0x656c6261
 268:	72746e45 	0x72746e45
 26c:	72703579 	0x72703579
 270:	45746e69 	0x45746e69
 274:	41550076 	0x41550076
 278:	545f5452 	bnel	$2,$31,153c4 <__start-0x7ffeac3c>
 27c:	61680058 	0x61680058
 280:	5500746c 	bnezl	$8,1d434 <__start-0x7ffe2bcc>
 284:	5f545241 	0x5f545241
 288:	54415453 	bnel	$2,$1,153d8 <__start-0x7ffeac28>
 28c:	74656700 	jalx	1959c00 <__start-0x7e6a6400>
 290:	65740063 	0x65740063
 294:	6200706d 	0x6200706d
 298:	6c746f6f 	0x6c746f6f
 29c:	6564616f 	0x6564616f
 2a0:	70632e72 	0x70632e72
 2a4:	65670070 	0x65670070
 2a8:	6e656c74 	0x6e656c74
 2ac:	6f6f6200 	0x6f6f6200
 2b0:	616f6c74 	0x616f6c74
 2b4:	00726564 	0x726564
 2b8:	63747570 	0x63747570
 2bc:	74757000 	jalx	1d5c000 <__start-0x7e2a4000>
 2c0:	41550073 	0x41550073
 2c4:	525f5452 	beql	$18,$31,15410 <__start-0x7ffeabf0>
 2c8:	75700058 	jalx	5c00160 <__start-0x7a3ffea0>
 2cc:	78656874 	0x78656874
 2d0:	6f746e00 	0x6f746e00
 2d4:	5f006c68 	bgtzl	$24,1b478 <__start-0x7ffe4b88>
 2d8:	7570375a 	jalx	5c0dd68 <__start-0x7a3f2298>
 2dc:	61686374 	0x61686374
 2e0:	5f006372 	bgtzl	$24,190ac <__start-0x7ffe6f54>
 2e4:	656d365a 	0x656d365a
 2e8:	7465736d 	jalx	195cdb4 <__start-0x7e6a324c>
 2ec:	6d637650 	0x6d637650
 2f0:	6f746e00 	0x6f746e00
 2f4:	5f007368 	bgtzl	$24,1d098 <__start-0x7ffe2f68>
 2f8:	6572395a 	0x6572395a
 2fc:	615f6461 	0x615f6461
 300:	50726464 	beql	$3,$18,19494 <__start-0x7ffe6b6c>
 304:	69730068 	0x69730068
 308:	745f657a 	jalx	17d95e8 <__start-0x7e826a18>
 30c:	74757000 	jalx	1d5c000 <__start-0x7e2a4000>
 310:	72616863 	0x72616863
 314:	74656700 	jalx	1959c00 <__start-0x7e6a6400>
 318:	61746144 	0x61746144
 31c:	365a5f00 	ori	$26,$18,0x5f00
 320:	7074756f 	0x7074756f
 324:	006a7475 	0x6a7475
 328:	636d656d 	0x636d656d
 32c:	68007970 	0x68007970
 330:	736e6f74 	0x736e6f74
 334:	365a5f00 	ori	$26,$18,0x5f00
 338:	6e697270 	0x6e697270
 33c:	4b506674 	c2	0x1506674
 340:	5a5f0063 	0x5a5f0063
 344:	76696433 	jalx	9a590cc <__start-0x765a6f34>
 348:	69526969 	0x69526969
 34c:	72005f53 	0x72005f53
 350:	705f6365 	0x705f6365
 354:	746e6972 	jalx	1b9a5c8 <__start-0x7e465a38>
 358:	61630066 	0x61630066
 35c:	6d00636c 	0x6d00636c
 360:	65736d65 	0x65736d65
 364:	5a5f0074 	0x5a5f0074
 368:	6d656d36 	0x6d656d36
 36c:	50797063 	beql	$3,$25,1c4fc <__start-0x7ffe3b04>
 370:	6d5f5376 	0x6d5f5376
 374:	78656800 	0x78656800
 378:	68636f74 	0x68636f74
 37c:	69727700 	0x69727700
 380:	61446574 	0x61446574
 384:	5f006174 	bgtzl	$24,18958 <__start-0x7ffe76a8>
 388:	7277395a 	0x7277395a
 38c:	44657469 	0x44657469
 390:	50617461 	beql	$3,$1,1d518 <__start-0x7ffe2ae8>
 394:	00696d68 	0x696d68
 398:	30315a5f 	andi	$17,$1,0x5a5f
 39c:	5f636572 	0x5f636572
 3a0:	6e697270 	0x6e697270
 3a4:	00696674 	teq	$3,$9,0x199
 3a8:	72375a5f 	0x72375a5f
 3ac:	72657665 	0x72657665
 3b0:	00686573 	tltu	$3,$8,0x195
 3b4:	6e355a5f 	0x6e355a5f
 3b8:	73686f74 	0x73686f74
 3bc:	5a5f0074 	0x5a5f0074
 3c0:	74656737 	jalx	1959cdc <__start-0x7e6a6324>
 3c4:	61746144 	0x61746144
 3c8:	6d684b50 	0x6d684b50
 3cc:	5f6e6900 	0x5f6e6900
 3d0:	72646461 	0x72646461
 3d4:	5f00745f 	bgtzl	$24,1d554 <__start-0x7ffe2aac>
 3d8:	4930315a 	0x4930315a
 3dc:	65684350 	0x65684350
 3e0:	75736b63 	jalx	5cdad8c <__start-0x7a325274>
 3e4:	0068506d 	0x68506d
 3e8:	70365a5f 	0x70365a5f
 3ec:	746e6972 	jalx	1b9a5c8 <__start-0x7e465a38>
 3f0:	5f006966 	bgtzl	$24,1a98c <__start-0x7ffe5674>
 3f4:	696d335a 	0x696d335a
 3f8:	006a6a6e 	0x6a6a6e
 3fc:	6c697475 	0x6c697475
 400:	2e797469 	sltiu	$25,$19,29801
 404:	00707063 	0x707063
 408:	63345a5f 	0x63345a5f
 40c:	6a636c61 	0x6a636c61
 410:	65720069 	0x65720069
 414:	73726576 	0x73726576
 418:	74680065 	jalx	1a00194 <__start-0x7e5ffe6c>
 41c:	006c6e6f 	0x6c6e6f
 420:	6f335a5f 	0x6f335a5f
 424:	696a7475 	0x696a7475
 428:	355a5f00 	ori	$26,$10,0x5f00
 42c:	6e6f7468 	0x6e6f7468
 430:	6f007473 	0x6f007473
 434:	75707475 	jalx	5c1d1d4 <__start-0x7a3e2e2c>
 438:	65720074 	0x65720074
 43c:	615f6461 	0x615f6461
 440:	00726464 	0x726464
 444:	72735f63 	0x72735f63
 448:	5a5f0063 	0x5a5f0063
 44c:	6f746e35 	0x6f746e35
 450:	006a6c68 	0x6a6c68
 454:	73645f63 	0x73645f63
 458:	5a5f0074 	0x5a5f0074
 45c:	6f746835 	0x6f746835
 460:	006a6c6e 	0x6a6c6e
 464:	68375a5f 	0x68375a5f
 468:	6f747865 	0x6f747865
 46c:	00696863 	0x696863
 470:	68435049 	0x68435049
 474:	736b6365 	0x736b6365
 478:	42006d75 	c0	0x6d75
 47c:	65666675 	0x65666675
 480:	646e4972 	0x646e4972
 484:	74507865 	jalx	141e194 <__start-0x7ebe1e6c>
 488:	65530072 	0x65530072
 48c:	7453646e 	jalx	14d91b8 <__start-0x7eb26e48>
 490:	50657461 	beql	$3,$5,1d618 <__start-0x7ffe29e8>
 494:	47007274 	c1	0x1007274
 498:	69547465 	0x69547465
 49c:	00736b63 	0x736b63
 4a0:	685f6174 	0x685f6174
 4a4:	632e6c61 	0x632e6c61
 4a8:	42007070 	c0	0x7070
 4ac:	45464655 	0x45464655
 4b0:	49535f52 	0x49535f52
 4b4:	6f00455a 	0x6f00455a
 4b8:	72726576 	0x72726576
 4bc:	75006e75 	jalx	401b9d4 <__start-0x7bfe462c>
 4c0:	36746e69 	ori	$20,$19,0x6e69
 4c4:	00745f34 	teq	$3,$20,0x17c
 4c8:	646e6553 	0x646e6553
 4cc:	65687445 	0x65687445
 4d0:	74656e72 	jalx	195b9c8 <__start-0x7e6a4638>
 4d4:	6d617246 	0x6d617246
 4d8:	69740065 	0x69740065
 4dc:	0032656d 	0x32656d
 4e0:	656d6974 	0x656d6974
 4e4:	66690031 	0x66690031
 4e8:	6464615f 	0x6464615f
 4ec:	49007372 	bc2f	1d2b8 <__start-0x7ffe2d48>
 4f0:	0074696e 	0x74696e
 4f4:	454d4954 	0x454d4954
 4f8:	4f505f52 	c3	0x1505f52
 4fc:	79730053 	0x79730053
 500:	6e695f73 	0x6e695f73
 504:	00786564 	0x786564
 508:	65636552 	0x65636552
 50c:	45657669 	0x45657669
 510:	72656874 	0x72656874
 514:	4674656e 	c1	0x74656e
 518:	656d6172 	0x656d6172
 51c:	46554200 	c1	0x554200
 520:	5f524546 	0x5f524546
 524:	45534142 	0x45534142
 528:	4444415f 	0x4444415f
 52c:	53534552 	beql	$26,$19,11a78 <__start-0x7ffee588>
 530:	46554200 	c1	0x554200
 534:	5f524546 	0x5f524546
 538:	4c494154 	0x4c494154
 53c:	4444415f 	0x4444415f
 540:	53534552 	beql	$26,$19,11a8c <__start-0x7ffee574>
 544:	6d697400 	0x6d697400
 548:	74756f65 	jalx	1d5bd94 <__start-0x7e2a426c>
 54c:	4e455300 	c3	0x455300
 550:	4f435f44 	c3	0x1435f44
 554:	4f52544e 	c3	0x152544e
 558:	44415f4c 	0x44415f4c
 55c:	53455244 	beql	$26,$5,14e70 <__start-0x7ffeb190>
 560:	74730053 	jalx	1cc014c <__start-0x7e33feb4>
 564:	54747261 	bnel	$3,$20,1ceec <__start-0x7ffe3114>
 568:	00656d69 	0x656d69
 56c:	66667562 	0x66667562
 570:	74007265 	jalx	1c994 <__start-0x7ffe366c>
 574:	006c6961 	0x6c6961
 578:	444e4553 	0x444e4553
 57c:	4154535f 	0x4154535f
 580:	415f4554 	0x415f4554
 584:	45524444 	0x45524444
 588:	52005353 	beqzl	$16,152d8 <__start-0x7ffead28>
 58c:	4554554f 	0x4554554f
 590:	41545f52 	0x41545f52
 594:	5f454c42 	0x5f454c42
 598:	45534142 	0x45534142
 59c:	6e656c00 	0x6e656c00
 5a0:	00687467 	0x687467
 5a4:	6c6f6f62 	0x6c6f6f62
 5a8:	73696400 	0x73696400
 5ac:	65737361 	0x65737361
 5b0:	656c626d 	0x656c626d
 5b4:	6c3c7e00 	0x6c3c7e00
 5b8:	64626d61 	0x64626d61
 5bc:	52003e61 	beqzl	$16,ff44 <__start-0x7fff00bc>
 5c0:	6e457069 	0x6e457069
 5c4:	00797274 	teq	$3,$25,0x1c9
 5c8:	6d6d6f63 	0x6d6d6f63
 5cc:	00646e61 	0x646e61
 5d0:	6d616c3c 	0x6d616c3c
 5d4:	28616462 	slti	$1,$3,25698
 5d8:	72003e29 	0x72003e29
 5dc:	61507069 	0x61507069
 5e0:	74656b63 	jalx	195ad8c <__start-0x7e6a5274>
 5e4:	72657a00 	0x72657a00
 5e8:	6972006f 	0x6972006f
 5ec:	74735f70 	jalx	1cd7dc0 <__start-0x7e328240>
 5f0:	00747261 	0x747261
 5f4:	456d756e 	0x456d756e
 5f8:	6972746e 	0x6972746e
 5fc:	5f007365 	bgtzl	$24,1d394 <__start-0x7ffe2c6c>
 600:	6431315a 	0x6431315a
 604:	73617369 	0x73617369
 608:	626d6573 	0x626d6573
 60c:	4b50656c 	c2	0x150656c
 610:	39506a68 	xori	$16,$10,0x6a68
 614:	50706952 	beql	$3,$16,1ab60 <__start-0x7ffe54a0>
 618:	656b6361 	0x656b6361
 61c:	5a5f0074 	0x5a5f0074
 620:	6952384e 	0x6952384e
 624:	746e4570 	jalx	1b915c0 <__start-0x7e46ea40>
 628:	70357972 	0x70357972
 62c:	746e6972 	jalx	1b9a5c8 <__start-0x7e465a38>
 630:	5f007645 	bgtzl	$24,1df48 <__start-0x7ffe20b8>
 634:	7069725f 	0x7069725f
 638:	72746e45 	0x72746e45
 63c:	5f5f0079 	0x5f5f0079
 640:	736f6c63 	0x736f6c63
 644:	00657275 	0x657275
 648:	746f7270 	jalx	1bdc9c0 <__start-0x7e423640>
 64c:	6c6f636f 	0x6c6f636f
 650:	7070632e 	0x7070632e
 654:	72657600 	0x72657600
 658:	6e6f6973 	0x6e6f6973
 65c:	385a5f00 	xori	$26,$2,0x5f00
 660:	65737361 	0x65737361
 664:	656c626d 	0x656c626d
 668:	52394b50 	beql	$17,$25,133ac <__start-0x7ffecc54>
 66c:	61507069 	0x61507069
 670:	74656b63 	jalx	195ad8c <__start-0x7e6a5274>
 674:	5f006850 	bgtzl	$24,1a7b8 <__start-0x7ffe5848>
 678:	52394e5a 	beql	$17,$25,13fe4 <__start-0x7ffec01c>
 67c:	61507069 	0x61507069
 680:	74656b63 	jalx	195ad8c <__start-0x7e6a5274>
 684:	76453443 	jalx	914d10c <__start-0x76eb2ef4>
 688:	73616d00 	0x73616d00
 68c:	6166006b 	0x6166006b
 690:	796c696d 	0x796c696d
 694:	746e6500 	jalx	1b99400 <__start-0x7e466c00>
 698:	73656972 	0x73656972
 69c:	65706f00 	0x65706f00
 6a0:	6f746172 	0x6f746172
 6a4:	00292872 	tlt	$1,$9,0xa1
 6a8:	61746f74 	0x61746f74
 6ac:	6e654c6c 	0x6e654c6c
 6b0:	00687467 	0x687467
 6b4:	384e5a5f 	xori	$14,$2,0x5a5f
 6b8:	45706952 	0x45706952
 6bc:	7972746e 	0x7972746e
 6c0:	6a453443 	0x6a453443
 6c4:	006a6a6a 	0x6a6a6a
 6c8:	384e5a5f 	xori	$14,$2,0x5a5f
 6cc:	45706952 	0x45706952
 6d0:	7972746e 	0x7972746e
 6d4:	6a453243 	0x6a453243
 6d8:	006a6a6a 	0x6a6a6a
 6dc:	2e706972 	sltiu	$16,$19,26994
 6e0:	00707063 	0x707063
 6e4:	394e5a5f 	xori	$14,$10,0x5a5f
 6e8:	50706952 	beql	$3,$16,1ac34 <__start-0x7ffe53cc>
 6ec:	656b6361 	0x656b6361
 6f0:	45324374 	0x45324374
 6f4:	74730076 	jalx	1cc01d8 <__start-0x7e33fe28>
 6f8:	00657461 	0x657461
 6fc:	39315a5f 	xori	$17,$9,0x5a5f
 700:	65736e49 	0x65736e49
 704:	61487472 	0x61487472
 708:	61776472 	0x61776472
 70c:	61546572 	0x61546572
 710:	6a656c62 	0x6a656c62
 714:	0068686a 	0x68686a
 718:	61487369 	0x61487369
 71c:	61776472 	0x61776472
 720:	61546572 	0x61546572
 724:	46656c62 	c1	0x656c62
 728:	006c6c75 	0x6c6c75
 72c:	39315a5f 	xori	$17,$9,0x5a5f
 730:	61487369 	0x61487369
 734:	61776472 	0x61776472
 738:	61546572 	0x61546572
 73c:	46656c62 	c1	0x656c62
 740:	766c6c75 	jalx	9b1b1d4 <__start-0x764e4e2c>
 744:	736e4900 	0x736e4900
 748:	48747265 	0x48747265
 74c:	77647261 	jalx	d91c984 <__start-0x726e367c>
 750:	54657261 	bnel	$3,$5,1d0d8 <__start-0x7ffe2f28>
 754:	656c6261 	0x656c6261
 758:	554f5200 	bnel	$10,$15,14f5c <__start-0x7ffeb0a4>
 75c:	5f524554 	0x5f524554
 760:	4b4f4f4c 	c2	0x14f4f4c
 764:	435f5055 	c0	0x15f5055
 768:	004c5254 	0x4c5254
 76c:	745f6174 	jalx	17d85d0 <__start-0x7e827a30>
 770:	656c6261 	0x656c6261
 774:	7070632e 	0x7070632e
 778:	746e6900 	jalx	1b9a400 <__start-0x7e465c00>
 77c:	61667265 	0x61667265
 780:	Address 0x0000000000000780 is out of bounds.

