
ta_table.cpp.o:     file format elf32-tradlittlemips


Disassembly of section .reginfo:

00000000 <.reginfo>:
   0:	e00000fc 	sc	$0,252($0)
	...

Disassembly of section .MIPS.abiflags:

00000000 <.MIPS.abiflags>:
   0:	01200000 	0x1200000
   4:	02000101 	0x2000101
	...
  10:	00000001 	movf	$0,$0,$fcc0
  14:	00000000 	sll	$0,$0,0x0

Disassembly of section .pdr:

00000000 <.pdr>:
   0:	00000000 	sll	$0,$0,0x0
   4:	40000000 	mfc0	$0,c0_index
   8:	fffffffc 	sdc3	$31,-4($31)
	...
  14:	00000010 	mfhi	$0
  18:	0000001e 	0x1e
  1c:	0000001f 	0x1f
  20:	00000000 	sll	$0,$0,0x0
  24:	40000000 	mfc0	$0,c0_index
  28:	fffffffc 	sdc3	$31,-4($31)
	...
  34:	00000008 	jr	$0
  38:	0000001e 	0x1e
  3c:	0000001f 	0x1f

Disassembly of section .rodata._ZL17ROUTER_TABLE_BASE:

00000000 <_ZL17ROUTER_TABLE_BASE>:
   0:	bfd00410 	cache	0x10,1040($30)

Disassembly of section .rodata._ZL18ROUTER_LOOKUP_CTRL:

00000000 <_ZL18ROUTER_LOOKUP_CTRL>:
   0:	bfd00420 	cache	0x10,1056($30)

Disassembly of section .text._Z19InsertHardwareTablejjhh:

00000000 <_Z19InsertHardwareTablejjhh>:
   0:	27bdfff0 	addiu	$29,$29,-16
   4:	afbe000c 	sw	$30,12($29)
   8:	03a0f025 	or	$30,$29,$0
   c:	afc40010 	sw	$4,16($30)
  10:	afc50014 	sw	$5,20($30)
  14:	00c01025 	or	$2,$6,$0
  18:	00e01825 	or	$3,$7,$0
  1c:	a3c20018 	sb	$2,24($30)
  20:	00601025 	or	$2,$3,$0
  24:	a3c2001c 	sb	$2,28($30)
  28:	3c02bfd0 	lui	$2,0xbfd0
  2c:	34420410 	ori	$2,$2,0x410
  30:	8fc30010 	lw	$3,16($30)
  34:	ac430000 	sw	$3,0($2)
  38:	3c02bfd0 	lui	$2,0xbfd0
  3c:	34420414 	ori	$2,$2,0x414
  40:	8fc30014 	lw	$3,20($30)
  44:	ac430000 	sw	$3,0($2)
  48:	3c02bfd0 	lui	$2,0xbfd0
  4c:	34420418 	ori	$2,$2,0x418
  50:	93c30018 	lbu	$3,24($30)
  54:	ac430000 	sw	$3,0($2)
  58:	3c02bfd0 	lui	$2,0xbfd0
  5c:	3442041c 	ori	$2,$2,0x41c
  60:	93c3001c 	lbu	$3,28($30)
  64:	ac430000 	sw	$3,0($2)
  68:	3c02bfd0 	lui	$2,0xbfd0
  6c:	34420420 	ori	$2,$2,0x420
  70:	afc20000 	sw	$2,0($30)
  74:	8fc20000 	lw	$2,0($30)
  78:	8c420000 	lw	$2,0($2)
  7c:	30420001 	andi	$2,$2,0x1
  80:	0002102b 	sltu	$2,$0,$2
  84:	304200ff 	andi	$2,$2,0xff
  88:	10400003 	beqz	$2,98 <_Z19InsertHardwareTablejjhh+0x98>
  8c:	00000000 	sll	$0,$0,0x0
  90:	1000fff8 	beqz	$0,74 <_Z19InsertHardwareTablejjhh+0x74>
  94:	00000000 	sll	$0,$0,0x0
  98:	8fc20000 	lw	$2,0($30)
  9c:	24030001 	addiu	$3,$0,1
  a0:	ac430000 	sw	$3,0($2)
  a4:	00000000 	sll	$0,$0,0x0
  a8:	03c0e825 	or	$29,$30,$0
  ac:	8fbe000c 	lw	$30,12($29)
  b0:	27bd0010 	addiu	$29,$29,16
  b4:	03e00008 	jr	$31
  b8:	00000000 	sll	$0,$0,0x0

Disassembly of section .text._Z19isHardwareTableFullv:

00000000 <_Z19isHardwareTableFullv>:
   0:	27bdfff8 	addiu	$29,$29,-8
   4:	afbe0004 	sw	$30,4($29)
   8:	03a0f025 	or	$30,$29,$0
   c:	3c02bfd0 	lui	$2,0xbfd0
  10:	34420420 	ori	$2,$2,0x420
  14:	8c420000 	lw	$2,0($2)
  18:	30420002 	andi	$2,$2,0x2
  1c:	0002102b 	sltu	$2,$0,$2
  20:	304200ff 	andi	$2,$2,0xff
  24:	03c0e825 	or	$29,$30,$0
  28:	8fbe0004 	lw	$30,4($29)
  2c:	27bd0008 	addiu	$29,$29,8
  30:	03e00008 	jr	$31
  34:	00000000 	sll	$0,$0,0x0

Disassembly of section .debug_info:

00000000 <.debug_info>:
   0:	00000128 	0x128
   4:	00000004 	sllv	$0,$0,$0
   8:	01040000 	0x1040000
   c:	00000043 	sra	$0,$0,0x1
  10:	00018604 	0x18604
  14:	00020800 	sll	$1,$2,0x0
	...
  24:	06010200 	bgez	$16,828 <_ZL17ROUTER_TABLE_BASE+0x828>
  28:	000001fc 	0x1fc
  2c:	cd050202 	pref	0x5,514($8)
  30:	03000001 	movf	$0,$24,$fcc0
  34:	6e690504 	0x6e690504
  38:	08020074 	j	801d0 <_ZL17ROUTER_TABLE_BASE+0x801d0>
  3c:	0001bf05 	0x1bf05
  40:	01b70400 	0x1b70400
  44:	2e020000 	sltiu	$2,$16,0
  48:	0000004c 	syscall	0x1
  4c:	2c080102 	sltiu	$8,$0,258
  50:	02000001 	movf	$0,$16,$fcc0
  54:	01600702 	0x1600702
  58:	e1040000 	sc	$4,0($8)
  5c:	02000001 	movf	$0,$16,$fcc0
  60:	00006f34 	teq	$0,$0,0x1bc
  64:	005a0500 	0x5a0500
  68:	5a060000 	0x5a060000
  6c:	02000000 	0x2000000
  70:	01930704 	0x1930704
  74:	08020000 	j	80000 <_ZL17ROUTER_TABLE_BASE+0x80000>
  78:	0001a007 	srav	$20,$1,$0
  7c:	07040200 	0x7040200
  80:	0000013a 	0x13a
  84:	0001ea07 	0x1ea07
  88:	65050100 	0x65050100
  8c:	05000000 	bltz	$8,90 <.debug_info+0x90>
  90:	00000003 	sra	$0,$0,0x0
  94:	01730700 	0x1730700
  98:	06010000 	bgez	$16,9c <.debug_info+0x9c>
  9c:	00000065 	0x65
  a0:	00000305 	0x305
  a4:	27080000 	addiu	$8,$24,0
  a8:	01000000 	0x1000000
  ac:	00011315 	0x11315
  b0:	0000bf00 	sll	$23,$0,0x1c
  b4:	00000000 	sll	$0,$0,0x0
  b8:	00003800 	sll	$7,$0,0x0
  bc:	029c0100 	0x29c0100
  c0:	00000201 	0x201
  c4:	4c090000 	mfc3	$9,$0
  c8:	01000001 	movf	$0,$8,$fcc0
  cc:	00000b08 	0xb08
  d0:	00000000 	sll	$0,$0,0x0
  d4:	0000bc00 	sll	$23,$0,0x10
  d8:	259c0100 	addiu	$28,$12,256
  dc:	0a000001 	j	8000004 <_ZL17ROUTER_TABLE_BASE+0x8000004>
  e0:	01007069 	0x1007069
  e4:	00005a08 	0x5a08
  e8:	00910200 	0x910200
  ec:	00003b0b 	0x3b0b
  f0:	5a080100 	0x5a080100
  f4:	02000000 	0x2000000
  f8:	6c0a0491 	0x6c0a0491
  fc:	01006e65 	0x1006e65
 100:	00004108 	0x4108
 104:	08910200 	j	2440800 <_ZL17ROUTER_TABLE_BASE+0x2440800>
 108:	0001d70b 	0x1d70b
 10c:	41080100 	0x41080100
 110:	02000000 	0x2000000
 114:	05070c91 	0x5070c91
 118:	01000000 	0x1000000
 11c:	0001250f 	0x1250f
 120:	70910200 	0x70910200
 124:	6a040c00 	0x6a040c00
 128:	00000000 	sll	$0,$0,0x0

Disassembly of section .debug_abbrev:

00000000 <.debug_abbrev>:
   0:	25011101 	addiu	$1,$8,4353
   4:	030b130e 	0x30b130e
   8:	550e1b0e 	bnel	$8,$14,6c44 <_ZL17ROUTER_TABLE_BASE+0x6c44>
   c:	10011117 	beq	$0,$1,446c <_ZL17ROUTER_TABLE_BASE+0x446c>
  10:	02000017 	0x2000017
  14:	0b0b0024 	j	c2c0090 <_ZL17ROUTER_TABLE_BASE+0xc2c0090>
  18:	0e030b3e 	jal	80c2cf8 <_ZL17ROUTER_TABLE_BASE+0x80c2cf8>
  1c:	24030000 	addiu	$3,$0,0
  20:	3e0b0b00 	0x3e0b0b00
  24:	0008030b 	0x8030b
  28:	00160400 	sll	$0,$22,0x10
  2c:	0b3a0e03 	j	ce8380c <_ZL17ROUTER_TABLE_BASE+0xce8380c>
  30:	13490b3b 	beq	$26,$9,2d20 <_ZL17ROUTER_TABLE_BASE+0x2d20>
  34:	26050000 	addiu	$5,$16,0
  38:	00134900 	sll	$9,$19,0x4
  3c:	00350600 	0x350600
  40:	00001349 	0x1349
  44:	03003407 	0x3003407
  48:	3b0b3a0e 	xori	$11,$24,0x3a0e
  4c:	0213490b 	0x213490b
  50:	08000018 	j	60 <.debug_abbrev+0x60>
  54:	193f002e 	0x193f002e
  58:	0b3a0e03 	j	ce8380c <_ZL17ROUTER_TABLE_BASE+0xce8380c>
  5c:	0e6e0b3b 	jal	9b82cec <_ZL17ROUTER_TABLE_BASE+0x9b82cec>
  60:	01111349 	0x1111349
  64:	18400612 	blez	$2,18b0 <_ZL17ROUTER_TABLE_BASE+0x18b0>
  68:	00194297 	0x194297
  6c:	012e0900 	0x12e0900
  70:	0e03193f 	jal	80c64fc <_ZL17ROUTER_TABLE_BASE+0x80c64fc>
  74:	0b3b0b3a 	j	cec2ce8 <_ZL17ROUTER_TABLE_BASE+0xcec2ce8>
  78:	01110e6e 	0x1110e6e
  7c:	18400612 	blez	$2,18c8 <_ZL17ROUTER_TABLE_BASE+0x18c8>
  80:	01194297 	0x1194297
  84:	0a000013 	j	800004c <_ZL17ROUTER_TABLE_BASE+0x800004c>
  88:	08030005 	j	c0014 <_ZL17ROUTER_TABLE_BASE+0xc0014>
  8c:	0b3b0b3a 	j	cec2ce8 <_ZL17ROUTER_TABLE_BASE+0xcec2ce8>
  90:	18021349 	0x18021349
  94:	050b0000 	tltiu	$8,0
  98:	3a0e0300 	xori	$14,$16,0x300
  9c:	490b3b0b 	bc2tl	$cc2,eccc <_ZL17ROUTER_TABLE_BASE+0xeccc>
  a0:	00180213 	0x180213
  a4:	000f0c00 	sll	$1,$15,0x10
  a8:	13490b0b 	beq	$26,$9,2cd8 <_ZL17ROUTER_TABLE_BASE+0x2cd8>
  ac:	Address 0x00000000000000ac is out of bounds.


Disassembly of section .debug_aranges:

00000000 <.debug_aranges>:
   0:	00000024 	and	$0,$0,$0
   4:	00000002 	srl	$0,$0,0x0
   8:	00040000 	sll	$0,$4,0x0
	...
  14:	000000bc 	0xbc
  18:	00000000 	sll	$0,$0,0x0
  1c:	00000038 	0x38
	...

Disassembly of section .debug_ranges:

00000000 <.debug_ranges>:
   0:	00000000 	sll	$0,$0,0x0
   4:	000000bc 	0xbc
   8:	00000000 	sll	$0,$0,0x0
   c:	00000038 	0x38
	...

Disassembly of section .debug_line:

00000000 <.debug_line>:
   0:	00000090 	0x90
   4:	005f0002 	0x5f0002
   8:	01010000 	0x1010000
   c:	000d0efb 	0xd0efb
  10:	01010101 	0x1010101
  14:	01000000 	0x1000000
  18:	2f010000 	sltiu	$1,$24,0
  1c:	2f727375 	sltiu	$18,$27,29557
  20:	2f62696c 	sltiu	$2,$27,26988
  24:	2d636367 	sltiu	$3,$11,25447
  28:	736f7263 	0x736f7263
  2c:	696d2f73 	0x696d2f73
  30:	6c2d7370 	0x6c2d7370
  34:	78756e69 	0x78756e69
  38:	756e672d 	jalx	5b99cb4 <_ZL17ROUTER_TABLE_BASE+0x5b99cb4>
  3c:	692f372f 	0x692f372f
  40:	756c636e 	jalx	5b18db8 <_ZL17ROUTER_TABLE_BASE+0x5b18db8>
  44:	00006564 	0x6564
  48:	745f6174 	jalx	17d85d0 <_ZL17ROUTER_TABLE_BASE+0x17d85d0>
  4c:	656c6261 	0x656c6261
  50:	7070632e 	0x7070632e
  54:	00000000 	sll	$0,$0,0x0
  58:	69647473 	0x69647473
  5c:	672d746e 	0x672d746e
  60:	682e6363 	0x682e6363
  64:	00000100 	sll	$0,$0,0x4
  68:	02050000 	0x2050000
  6c:	00000000 	sll	$0,$0,0x0
  70:	1328021a 	beq	$25,$8,8dc <_ZL17ROUTER_TABLE_BASE+0x8dc>
  74:	f4f3f3f3 	sdc1	$f19,-3085($7)
  78:	142402bb 	bne	$1,$4,b68 <_ZL17ROUTER_TABLE_BASE+0xb68>
  7c:	001802bb 	0x1802bb
  80:	05000101 	bltz	$8,488 <_ZL17ROUTER_TABLE_BASE+0x488>
  84:	00000002 	srl	$0,$0,0x0
  88:	01150300 	0x1150300
  8c:	027508bb 	0x27508bb
  90:	01010014 	0x1010014

Disassembly of section .debug_str:

00000000 <.debug_str>:
   0:	6c6f6f62 	0x6c6f6f62
   4:	61747300 	0x61747300
   8:	5f006574 	bgtzl	$24,195dc <_ZL17ROUTER_TABLE_BASE+0x195dc>
   c:	4939315a 	0x4939315a
  10:	7265736e 	0x7265736e
  14:	72614874 	0x72614874
  18:	72617764 	0x72617764
  1c:	62615465 	0x62615465
  20:	6a6a656c 	0x6a6a656c
  24:	69006868 	0x69006868
  28:	72614873 	0x72614873
  2c:	72617764 	0x72617764
  30:	62615465 	0x62615465
  34:	7546656c 	jalx	51995b0 <_ZL17ROUTER_TABLE_BASE+0x51995b0>
  38:	6e006c6c 	0x6e006c6c
  3c:	68747865 	0x68747865
  40:	4700706f 	c1	0x100706f
  44:	4320554e 	c0	0x120554e
  48:	31312b2b 	andi	$17,$9,0x2b2b
  4c:	342e3720 	ori	$14,$1,0x3720
  50:	2d20302e 	sltiu	$0,$9,12334
  54:	206c656d 	addi	$12,$3,25965
  58:	69736d2d 	0x69736d2d
  5c:	656c676e 	0x656c676e
  60:	6f6c662d 	0x6f6c662d
  64:	2d207461 	sltiu	$0,$9,29793
  68:	6f67786d 	0x6f67786d
  6c:	6d2d2074 	0x6d2d2074
  70:	612d6f6e 	0x612d6f6e
  74:	61636962 	0x61636962
  78:	20736c6c 	addi	$19,$3,27756
  7c:	61686d2d 	0x61686d2d
  80:	662d6472 	0x662d6472
  84:	74616f6c 	jalx	185bdb0 <_ZL17ROUTER_TABLE_BASE+0x185bdb0>
  88:	696d2d20 	0x696d2d20
  8c:	32337370 	andi	$19,$17,0x7370
  90:	6c6d2d20 	0x6c6d2d20
  94:	2063736c 	addi	$3,$3,29548
  98:	6f6e6d2d 	0x6f6e6d2d
  9c:	63786c2d 	0x63786c2d
  a0:	78732d31 	0x78732d31
  a4:	2d203163 	sltiu	$0,$9,12643
  a8:	2d6f6e6d 	sltiu	$15,$11,28269
  ac:	72616873 	0x72616873
  b0:	2d206465 	sltiu	$0,$9,25701
  b4:	6962616d 	0x6962616d
  b8:	2032333d 	addi	$18,$1,13117
  bc:	2d20672d 	sltiu	$0,$9,26413
  c0:	3d647473 	0x3d647473
  c4:	312b2b63 	andi	$11,$9,0x2b63
  c8:	662d2031 	0x662d2031
  cc:	636e7566 	0x636e7566
  d0:	6e6f6974 	0x6e6f6974
  d4:	6365732d 	0x6365732d
  d8:	6e6f6974 	0x6e6f6974
  dc:	662d2073 	0x662d2073
  e0:	61746164 	0x61746164
  e4:	6365732d 	0x6365732d
  e8:	6e6f6974 	0x6e6f6974
  ec:	662d2073 	0x662d2073
  f0:	65657266 	0x65657266
  f4:	6e617473 	0x6e617473
  f8:	676e6964 	0x676e6964
  fc:	6e662d20 	0x6e662d20
 100:	75622d6f 	jalx	588b5bc <_ZL17ROUTER_TABLE_BASE+0x588b5bc>
 104:	69746c69 	0x69746c69
 108:	662d206e 	0x662d206e
 10c:	502d6f6e 	beql	$1,$13,1bec8 <_ZL17ROUTER_TABLE_BASE+0x1bec8>
 110:	5f004549 	bgtzl	$24,11638 <_ZL17ROUTER_TABLE_BASE+0x11638>
 114:	6939315a 	0x6939315a
 118:	72614873 	0x72614873
 11c:	72617764 	0x72617764
 120:	62615465 	0x62615465
 124:	7546656c 	jalx	51995b0 <_ZL17ROUTER_TABLE_BASE+0x51995b0>
 128:	00766c6c 	0x766c6c
 12c:	69736e75 	0x69736e75
 130:	64656e67 	0x64656e67
 134:	61686320 	0x61686320
 138:	6f6c0072 	0x6f6c0072
 13c:	7520676e 	jalx	4819db8 <_ZL17ROUTER_TABLE_BASE+0x4819db8>
 140:	6769736e 	0x6769736e
 144:	2064656e 	addi	$4,$3,25966
 148:	00746e69 	0x746e69
 14c:	65736e49 	0x65736e49
 150:	61487472 	0x61487472
 154:	61776472 	0x61776472
 158:	61546572 	0x61546572
 15c:	00656c62 	0x656c62
 160:	726f6873 	0x726f6873
 164:	6e752074 	0x6e752074
 168:	6e676973 	0x6e676973
 16c:	69206465 	0x69206465
 170:	5200746e 	beqzl	$16,1d32c <_ZL17ROUTER_TABLE_BASE+0x1d32c>
 174:	4554554f 	0x4554554f
 178:	4f4c5f52 	c3	0x14c5f52
 17c:	50554b4f 	beql	$2,$21,12ebc <_ZL17ROUTER_TABLE_BASE+0x12ebc>
 180:	5254435f 	beql	$18,$20,10f00 <_ZL17ROUTER_TABLE_BASE+0x10f00>
 184:	6174004c 	0x6174004c
 188:	6261745f 	0x6261745f
 18c:	632e656c 	0x632e656c
 190:	75007070 	jalx	401c1c0 <_ZL17ROUTER_TABLE_BASE+0x401c1c0>
 194:	6769736e 	0x6769736e
 198:	2064656e 	addi	$4,$3,25966
 19c:	00746e69 	0x746e69
 1a0:	676e6f6c 	0x676e6f6c
 1a4:	6e6f6c20 	0x6e6f6c20
 1a8:	6e752067 	0x6e752067
 1ac:	6e676973 	0x6e676973
 1b0:	69206465 	0x69206465
 1b4:	7500746e 	jalx	401d1b8 <_ZL17ROUTER_TABLE_BASE+0x401d1b8>
 1b8:	38746e69 	xori	$20,$3,0x6e69
 1bc:	6c00745f 	0x6c00745f
 1c0:	20676e6f 	addi	$7,$3,28271
 1c4:	676e6f6c 	0x676e6f6c
 1c8:	746e6920 	jalx	1b9a480 <_ZL17ROUTER_TABLE_BASE+0x1b9a480>
 1cc:	6f687300 	0x6f687300
 1d0:	69207472 	0x69207472
 1d4:	6900746e 	0x6900746e
 1d8:	7265746e 	0x7265746e
 1dc:	65636166 	0x65636166
 1e0:	6e697500 	0x6e697500
 1e4:	5f323374 	0x5f323374
 1e8:	4f520074 	c3	0x1520074
 1ec:	52455455 	beql	$18,$5,15344 <_ZL17ROUTER_TABLE_BASE+0x15344>
 1f0:	4241545f 	c0	0x41545f
 1f4:	425f454c 	c0	0x5f454c
 1f8:	00455341 	0x455341
 1fc:	6e676973 	0x6e676973
 200:	63206465 	0x63206465
 204:	00726168 	0x726168
 208:	746e6d2f 	jalx	1b9b4bc <_ZL17ROUTER_TABLE_BASE+0x1b9b4bc>
 20c:	552f632f 	bnel	$9,$15,18ecc <_ZL17ROUTER_TABLE_BASE+0x18ecc>
 210:	73726573 	0x73726573
 214:	6d616e2f 	0x6d616e2f
 218:	442f7361 	0x442f7361
 21c:	6d75636f 	0x6d75636f
 220:	73746e65 	0x73746e65
 224:	756f432f 	jalx	5bd0cbc <_ZL17ROUTER_TABLE_BASE+0x5bd0cbc>
 228:	2f657372 	sltiu	$5,$27,29554
 22c:	39313032 	xori	$17,$9,0x3032
 230:	75747541 	jalx	5d1d504 <_ZL17ROUTER_TABLE_BASE+0x5d1d504>
 234:	4f2f6e6d 	c3	0x12f6e6d
 238:	6e616772 	0x6e616772
 23c:	74617a69 	jalx	185e9a4 <_ZL17ROUTER_TABLE_BASE+0x185e9a4>
 240:	4e6e6f69 	c3	0x6e6f69
 244:	6f777465 	0x6f777465
 248:	78456b72 	0x78456b72
 24c:	69726570 	0x69726570
 250:	746e656d 	jalx	1b995b4 <_ZL17ROUTER_TABLE_BASE+0x1b995b4>
 254:	6d65742f 	0x6d65742f
 258:	50495270 	beql	$2,$9,14c1c <_ZL17ROUTER_TABLE_BASE+0x14c1c>
 25c:	Address 0x000000000000025c is out of bounds.


Disassembly of section .comment:

00000000 <.comment>:
   0:	43434700 	c0	0x1434700
   4:	5528203a 	bnel	$9,$8,80f0 <_ZL17ROUTER_TABLE_BASE+0x80f0>
   8:	746e7562 	jalx	1b9d588 <_ZL17ROUTER_TABLE_BASE+0x1b9d588>
   c:	2e372075 	sltiu	$23,$17,8309
  10:	2d302e34 	sltiu	$16,$9,11828
  14:	75627531 	jalx	589d4c4 <_ZL17ROUTER_TABLE_BASE+0x589d4c4>
  18:	3175746e 	andi	$21,$11,0x746e
  1c:	2e38317e 	sltiu	$24,$17,12670
  20:	312e3430 	andi	$14,$9,0x3430
  24:	2e372029 	sltiu	$23,$17,8233
  28:	00302e34 	teq	$1,$16,0xb8

Disassembly of section .eh_frame:

00000000 <.eh_frame>:
   0:	00000010 	mfhi	$0
   4:	00000000 	sll	$0,$0,0x0
   8:	00527a01 	0x527a01
   c:	011f7c01 	0x11f7c01
  10:	001d0d0b 	0x1d0d0b
  14:	00000020 	add	$0,$0,$0
  18:	00000018 	mult	$0,$0
  1c:	00000000 	sll	$0,$0,0x0
  20:	000000bc 	0xbc
  24:	100e4400 	beq	$0,$14,11028 <_ZL17ROUTER_TABLE_BASE+0x11028>
  28:	44019e44 	0x44019e44
  2c:	a0021e0d 	sb	$2,7693($0)
  30:	de481d0d 	ldc3	$8,7437($18)
  34:	0000000e 	0xe
  38:	00000020 	add	$0,$0,$0
  3c:	0000003c 	0x3c
  40:	00000000 	sll	$0,$0,0x0
  44:	00000038 	0x38
  48:	080e4400 	j	391000 <_ZL17ROUTER_TABLE_BASE+0x391000>
  4c:	44019e44 	0x44019e44
  50:	0d5c1e0d 	jal	5707834 <_ZL17ROUTER_TABLE_BASE+0x5707834>
  54:	0ede481d 	jal	b792074 <_ZL17ROUTER_TABLE_BASE+0xb792074>
  58:	00000000 	sll	$0,$0,0x0

Disassembly of section .gnu.attributes:

00000000 <.gnu.attributes>:
   0:	00000f41 	0xf41
   4:	756e6700 	jalx	5b99c00 <_ZL17ROUTER_TABLE_BASE+0x5b99c00>
   8:	00070100 	sll	$0,$7,0x4
   c:	02040000 	0x2040000
